
perifericos.elf:     file format elf32-littlearm

Sections:
Idx Name          Size      VMA       LMA       File off  Algn
  0 .isr_vector   000000c0  08000000  08000000  00001000  2**0
                  CONTENTS, ALLOC, LOAD, READONLY, DATA
  1 .text         00002698  080000c0  080000c0  000010c0  2**2
                  CONTENTS, ALLOC, LOAD, READONLY, CODE
  2 .rodata       00000070  08002758  08002758  00003758  2**2
                  CONTENTS, ALLOC, LOAD, READONLY, DATA
  3 .ARM.extab    00000000  080027c8  080027c8  0000402c  2**0
                  CONTENTS, READONLY
  4 .ARM          00000000  080027c8  080027c8  0000402c  2**0
                  CONTENTS, READONLY
  5 .preinit_array 00000000  080027c8  080027c8  0000402c  2**0
                  CONTENTS, ALLOC, LOAD, DATA
  6 .init_array   00000004  080027c8  080027c8  000037c8  2**2
                  CONTENTS, ALLOC, LOAD, READONLY, DATA
  7 .fini_array   00000004  080027cc  080027cc  000037cc  2**2
                  CONTENTS, ALLOC, LOAD, READONLY, DATA
  8 .data         0000002c  20000000  080027d0  00004000  2**2
                  CONTENTS, ALLOC, LOAD, DATA
  9 .bss          000000ac  2000002c  080027fc  0000402c  2**2
                  ALLOC
 10 ._user_heap_stack 00000600  200000d8  080027fc  000040d8  2**0
                  ALLOC
 11 .ARM.attributes 00000028  00000000  00000000  0000402c  2**0
                  CONTENTS, READONLY
 12 .debug_info   00009076  00000000  00000000  00004054  2**0
                  CONTENTS, READONLY, DEBUGGING, OCTETS
 13 .debug_abbrev 00001a68  00000000  00000000  0000d0ca  2**0
                  CONTENTS, READONLY, DEBUGGING, OCTETS
 14 .debug_aranges 000009f8  00000000  00000000  0000eb38  2**3
                  CONTENTS, READONLY, DEBUGGING, OCTETS
 15 .debug_rnglists 000007ab  00000000  00000000  0000f530  2**0
                  CONTENTS, READONLY, DEBUGGING, OCTETS
 16 .debug_macro  00012c5f  00000000  00000000  0000fcdb  2**0
                  CONTENTS, READONLY, DEBUGGING, OCTETS
 17 .debug_line   0000c26f  00000000  00000000  0002293a  2**0
                  CONTENTS, READONLY, DEBUGGING, OCTETS
 18 .debug_str    000769f8  00000000  00000000  0002eba9  2**0
                  CONTENTS, READONLY, DEBUGGING, OCTETS
 19 .comment      00000043  00000000  00000000  000a55a1  2**0
                  CONTENTS, READONLY
 20 .debug_frame  0000230c  00000000  00000000  000a55e4  2**2
                  CONTENTS, READONLY, DEBUGGING, OCTETS
 21 .debug_line_str 00000059  00000000  00000000  000a78f0  2**0
                  CONTENTS, READONLY, DEBUGGING, OCTETS

Disassembly of section .text:

080000c0 <__do_global_dtors_aux>:
 80000c0:	b510      	push	{r4, lr}
 80000c2:	4c06      	ldr	r4, [pc, #24]	@ (80000dc <__do_global_dtors_aux+0x1c>)
 80000c4:	7823      	ldrb	r3, [r4, #0]
 80000c6:	2b00      	cmp	r3, #0
 80000c8:	d107      	bne.n	80000da <__do_global_dtors_aux+0x1a>
 80000ca:	4b05      	ldr	r3, [pc, #20]	@ (80000e0 <__do_global_dtors_aux+0x20>)
 80000cc:	2b00      	cmp	r3, #0
 80000ce:	d002      	beq.n	80000d6 <__do_global_dtors_aux+0x16>
 80000d0:	4804      	ldr	r0, [pc, #16]	@ (80000e4 <__do_global_dtors_aux+0x24>)
 80000d2:	e000      	b.n	80000d6 <__do_global_dtors_aux+0x16>
 80000d4:	bf00      	nop
 80000d6:	2301      	movs	r3, #1
 80000d8:	7023      	strb	r3, [r4, #0]
 80000da:	bd10      	pop	{r4, pc}
 80000dc:	2000002c 	.word	0x2000002c
 80000e0:	00000000 	.word	0x00000000
 80000e4:	08002740 	.word	0x08002740

080000e8 <frame_dummy>:
 80000e8:	4b04      	ldr	r3, [pc, #16]	@ (80000fc <frame_dummy+0x14>)
 80000ea:	b510      	push	{r4, lr}
 80000ec:	2b00      	cmp	r3, #0
 80000ee:	d003      	beq.n	80000f8 <frame_dummy+0x10>
 80000f0:	4903      	ldr	r1, [pc, #12]	@ (8000100 <frame_dummy+0x18>)
 80000f2:	4804      	ldr	r0, [pc, #16]	@ (8000104 <frame_dummy+0x1c>)
 80000f4:	e000      	b.n	80000f8 <frame_dummy+0x10>
 80000f6:	bf00      	nop
 80000f8:	bd10      	pop	{r4, pc}
 80000fa:	46c0      	nop			@ (mov r8, r8)
 80000fc:	00000000 	.word	0x00000000
 8000100:	20000030 	.word	0x20000030
 8000104:	08002740 	.word	0x08002740

08000108 <__udivsi3>:
 8000108:	2200      	movs	r2, #0
 800010a:	0843      	lsrs	r3, r0, #1
 800010c:	428b      	cmp	r3, r1
 800010e:	d374      	bcc.n	80001fa <__udivsi3+0xf2>
 8000110:	0903      	lsrs	r3, r0, #4
 8000112:	428b      	cmp	r3, r1
 8000114:	d35f      	bcc.n	80001d6 <__udivsi3+0xce>
 8000116:	0a03      	lsrs	r3, r0, #8
 8000118:	428b      	cmp	r3, r1
 800011a:	d344      	bcc.n	80001a6 <__udivsi3+0x9e>
 800011c:	0b03      	lsrs	r3, r0, #12
 800011e:	428b      	cmp	r3, r1
 8000120:	d328      	bcc.n	8000174 <__udivsi3+0x6c>
 8000122:	0c03      	lsrs	r3, r0, #16
 8000124:	428b      	cmp	r3, r1
 8000126:	d30d      	bcc.n	8000144 <__udivsi3+0x3c>
 8000128:	22ff      	movs	r2, #255	@ 0xff
 800012a:	0209      	lsls	r1, r1, #8
 800012c:	ba12      	rev	r2, r2
 800012e:	0c03      	lsrs	r3, r0, #16
 8000130:	428b      	cmp	r3, r1
 8000132:	d302      	bcc.n	800013a <__udivsi3+0x32>
 8000134:	1212      	asrs	r2, r2, #8
 8000136:	0209      	lsls	r1, r1, #8
 8000138:	d065      	beq.n	8000206 <__udivsi3+0xfe>
 800013a:	0b03      	lsrs	r3, r0, #12
 800013c:	428b      	cmp	r3, r1
 800013e:	d319      	bcc.n	8000174 <__udivsi3+0x6c>
 8000140:	e000      	b.n	8000144 <__udivsi3+0x3c>
 8000142:	0a09      	lsrs	r1, r1, #8
 8000144:	0bc3      	lsrs	r3, r0, #15
 8000146:	428b      	cmp	r3, r1
 8000148:	d301      	bcc.n	800014e <__udivsi3+0x46>
 800014a:	03cb      	lsls	r3, r1, #15
 800014c:	1ac0      	subs	r0, r0, r3
 800014e:	4152      	adcs	r2, r2
 8000150:	0b83      	lsrs	r3, r0, #14
 8000152:	428b      	cmp	r3, r1
 8000154:	d301      	bcc.n	800015a <__udivsi3+0x52>
 8000156:	038b      	lsls	r3, r1, #14
 8000158:	1ac0      	subs	r0, r0, r3
 800015a:	4152      	adcs	r2, r2
 800015c:	0b43      	lsrs	r3, r0, #13
 800015e:	428b      	cmp	r3, r1
 8000160:	d301      	bcc.n	8000166 <__udivsi3+0x5e>
 8000162:	034b      	lsls	r3, r1, #13
 8000164:	1ac0      	subs	r0, r0, r3
 8000166:	4152      	adcs	r2, r2
 8000168:	0b03      	lsrs	r3, r0, #12
 800016a:	428b      	cmp	r3, r1
 800016c:	d301      	bcc.n	8000172 <__udivsi3+0x6a>
 800016e:	030b      	lsls	r3, r1, #12
 8000170:	1ac0      	subs	r0, r0, r3
 8000172:	4152      	adcs	r2, r2
 8000174:	0ac3      	lsrs	r3, r0, #11
 8000176:	428b      	cmp	r3, r1
 8000178:	d301      	bcc.n	800017e <__udivsi3+0x76>
 800017a:	02cb      	lsls	r3, r1, #11
 800017c:	1ac0      	subs	r0, r0, r3
 800017e:	4152      	adcs	r2, r2
 8000180:	0a83      	lsrs	r3, r0, #10
 8000182:	428b      	cmp	r3, r1
 8000184:	d301      	bcc.n	800018a <__udivsi3+0x82>
 8000186:	028b      	lsls	r3, r1, #10
 8000188:	1ac0      	subs	r0, r0, r3
 800018a:	4152      	adcs	r2, r2
 800018c:	0a43      	lsrs	r3, r0, #9
 800018e:	428b      	cmp	r3, r1
 8000190:	d301      	bcc.n	8000196 <__udivsi3+0x8e>
 8000192:	024b      	lsls	r3, r1, #9
 8000194:	1ac0      	subs	r0, r0, r3
 8000196:	4152      	adcs	r2, r2
 8000198:	0a03      	lsrs	r3, r0, #8
 800019a:	428b      	cmp	r3, r1
 800019c:	d301      	bcc.n	80001a2 <__udivsi3+0x9a>
 800019e:	020b      	lsls	r3, r1, #8
 80001a0:	1ac0      	subs	r0, r0, r3
 80001a2:	4152      	adcs	r2, r2
 80001a4:	d2cd      	bcs.n	8000142 <__udivsi3+0x3a>
 80001a6:	09c3      	lsrs	r3, r0, #7
 80001a8:	428b      	cmp	r3, r1
 80001aa:	d301      	bcc.n	80001b0 <__udivsi3+0xa8>
 80001ac:	01cb      	lsls	r3, r1, #7
 80001ae:	1ac0      	subs	r0, r0, r3
 80001b0:	4152      	adcs	r2, r2
 80001b2:	0983      	lsrs	r3, r0, #6
 80001b4:	428b      	cmp	r3, r1
 80001b6:	d301      	bcc.n	80001bc <__udivsi3+0xb4>
 80001b8:	018b      	lsls	r3, r1, #6
 80001ba:	1ac0      	subs	r0, r0, r3
 80001bc:	4152      	adcs	r2, r2
 80001be:	0943      	lsrs	r3, r0, #5
 80001c0:	428b      	cmp	r3, r1
 80001c2:	d301      	bcc.n	80001c8 <__udivsi3+0xc0>
 80001c4:	014b      	lsls	r3, r1, #5
 80001c6:	1ac0      	subs	r0, r0, r3
 80001c8:	4152      	adcs	r2, r2
 80001ca:	0903      	lsrs	r3, r0, #4
 80001cc:	428b      	cmp	r3, r1
 80001ce:	d301      	bcc.n	80001d4 <__udivsi3+0xcc>
 80001d0:	010b      	lsls	r3, r1, #4
 80001d2:	1ac0      	subs	r0, r0, r3
 80001d4:	4152      	adcs	r2, r2
 80001d6:	08c3      	lsrs	r3, r0, #3
 80001d8:	428b      	cmp	r3, r1
 80001da:	d301      	bcc.n	80001e0 <__udivsi3+0xd8>
 80001dc:	00cb      	lsls	r3, r1, #3
 80001de:	1ac0      	subs	r0, r0, r3
 80001e0:	4152      	adcs	r2, r2
 80001e2:	0883      	lsrs	r3, r0, #2
 80001e4:	428b      	cmp	r3, r1
 80001e6:	d301      	bcc.n	80001ec <__udivsi3+0xe4>
 80001e8:	008b      	lsls	r3, r1, #2
 80001ea:	1ac0      	subs	r0, r0, r3
 80001ec:	4152      	adcs	r2, r2
 80001ee:	0843      	lsrs	r3, r0, #1
 80001f0:	428b      	cmp	r3, r1
 80001f2:	d301      	bcc.n	80001f8 <__udivsi3+0xf0>
 80001f4:	004b      	lsls	r3, r1, #1
 80001f6:	1ac0      	subs	r0, r0, r3
 80001f8:	4152      	adcs	r2, r2
 80001fa:	1a41      	subs	r1, r0, r1
 80001fc:	d200      	bcs.n	8000200 <__udivsi3+0xf8>
 80001fe:	4601      	mov	r1, r0
 8000200:	4152      	adcs	r2, r2
 8000202:	4610      	mov	r0, r2
 8000204:	4770      	bx	lr
 8000206:	e7ff      	b.n	8000208 <__udivsi3+0x100>
 8000208:	b501      	push	{r0, lr}
 800020a:	2000      	movs	r0, #0
 800020c:	f000 f806 	bl	800021c <__aeabi_idiv0>
 8000210:	bd02      	pop	{r1, pc}
 8000212:	46c0      	nop			@ (mov r8, r8)

08000214 <__aeabi_uidivmod>:
 8000214:	2900      	cmp	r1, #0
 8000216:	d0f7      	beq.n	8000208 <__udivsi3+0x100>
 8000218:	e776      	b.n	8000108 <__udivsi3>
 800021a:	4770      	bx	lr

0800021c <__aeabi_idiv0>:
 800021c:	4770      	bx	lr
 800021e:	46c0      	nop			@ (mov r8, r8)

08000220 <MX_GPIO_Init>:
 8000220:	b590      	push	{r4, r7, lr}
 8000222:	b08b      	sub	sp, #44	@ 0x2c
 8000224:	af00      	add	r7, sp, #0
 8000226:	2414      	movs	r4, #20
 8000228:	193b      	adds	r3, r7, r4
 800022a:	0018      	movs	r0, r3
 800022c:	2314      	movs	r3, #20
 800022e:	001a      	movs	r2, r3
 8000230:	2100      	movs	r1, #0
 8000232:	f002 fa59 	bl	80026e8 <memset>
 8000236:	4b5e      	ldr	r3, [pc, #376]	@ (80003b0 <MX_GPIO_Init+0x190>)
 8000238:	6b5a      	ldr	r2, [r3, #52]	@ 0x34
 800023a:	4b5d      	ldr	r3, [pc, #372]	@ (80003b0 <MX_GPIO_Init+0x190>)
 800023c:	2104      	movs	r1, #4
 800023e:	430a      	orrs	r2, r1
 8000240:	635a      	str	r2, [r3, #52]	@ 0x34
 8000242:	4b5b      	ldr	r3, [pc, #364]	@ (80003b0 <MX_GPIO_Init+0x190>)
 8000244:	6b5b      	ldr	r3, [r3, #52]	@ 0x34
 8000246:	2204      	movs	r2, #4
 8000248:	4013      	ands	r3, r2
 800024a:	613b      	str	r3, [r7, #16]
 800024c:	693b      	ldr	r3, [r7, #16]
 800024e:	4b58      	ldr	r3, [pc, #352]	@ (80003b0 <MX_GPIO_Init+0x190>)
 8000250:	6b5a      	ldr	r2, [r3, #52]	@ 0x34
 8000252:	4b57      	ldr	r3, [pc, #348]	@ (80003b0 <MX_GPIO_Init+0x190>)
 8000254:	2120      	movs	r1, #32
 8000256:	430a      	orrs	r2, r1
 8000258:	635a      	str	r2, [r3, #52]	@ 0x34
 800025a:	4b55      	ldr	r3, [pc, #340]	@ (80003b0 <MX_GPIO_Init+0x190>)
 800025c:	6b5b      	ldr	r3, [r3, #52]	@ 0x34
 800025e:	2220      	movs	r2, #32
 8000260:	4013      	ands	r3, r2
 8000262:	60fb      	str	r3, [r7, #12]
 8000264:	68fb      	ldr	r3, [r7, #12]
 8000266:	4b52      	ldr	r3, [pc, #328]	@ (80003b0 <MX_GPIO_Init+0x190>)
 8000268:	6b5a      	ldr	r2, [r3, #52]	@ 0x34
 800026a:	4b51      	ldr	r3, [pc, #324]	@ (80003b0 <MX_GPIO_Init+0x190>)
 800026c:	2101      	movs	r1, #1
 800026e:	430a      	orrs	r2, r1
 8000270:	635a      	str	r2, [r3, #52]	@ 0x34
 8000272:	4b4f      	ldr	r3, [pc, #316]	@ (80003b0 <MX_GPIO_Init+0x190>)
 8000274:	6b5b      	ldr	r3, [r3, #52]	@ 0x34
 8000276:	2201      	movs	r2, #1
 8000278:	4013      	ands	r3, r2
 800027a:	60bb      	str	r3, [r7, #8]
 800027c:	68bb      	ldr	r3, [r7, #8]
 800027e:	4b4c      	ldr	r3, [pc, #304]	@ (80003b0 <MX_GPIO_Init+0x190>)
 8000280:	6b5a      	ldr	r2, [r3, #52]	@ 0x34
 8000282:	4b4b      	ldr	r3, [pc, #300]	@ (80003b0 <MX_GPIO_Init+0x190>)
 8000284:	2102      	movs	r1, #2
 8000286:	430a      	orrs	r2, r1
 8000288:	635a      	str	r2, [r3, #52]	@ 0x34
 800028a:	4b49      	ldr	r3, [pc, #292]	@ (80003b0 <MX_GPIO_Init+0x190>)
 800028c:	6b5b      	ldr	r3, [r3, #52]	@ 0x34
 800028e:	2202      	movs	r2, #2
 8000290:	4013      	ands	r3, r2
 8000292:	607b      	str	r3, [r7, #4]
 8000294:	687b      	ldr	r3, [r7, #4]
 8000296:	23a0      	movs	r3, #160	@ 0xa0
 8000298:	05db      	lsls	r3, r3, #23
 800029a:	2200      	movs	r2, #0
 800029c:	2120      	movs	r1, #32
 800029e:	0018      	movs	r0, r3
 80002a0:	f001 fc2f 	bl	8001b02 <HAL_GPIO_WritePin>
 80002a4:	4b43      	ldr	r3, [pc, #268]	@ (80003b4 <MX_GPIO_Init+0x194>)
 80002a6:	2200      	movs	r2, #0
 80002a8:	210f      	movs	r1, #15
 80002aa:	0018      	movs	r0, r3
 80002ac:	f001 fc29 	bl	8001b02 <HAL_GPIO_WritePin>
 80002b0:	193b      	adds	r3, r7, r4
 80002b2:	2201      	movs	r2, #1
 80002b4:	601a      	str	r2, [r3, #0]
 80002b6:	193b      	adds	r3, r7, r4
 80002b8:	4a3f      	ldr	r2, [pc, #252]	@ (80003b8 <MX_GPIO_Init+0x198>)
 80002ba:	605a      	str	r2, [r3, #4]
 80002bc:	193b      	adds	r3, r7, r4
 80002be:	2202      	movs	r2, #2
 80002c0:	609a      	str	r2, [r3, #8]
 80002c2:	193a      	adds	r2, r7, r4
 80002c4:	23a0      	movs	r3, #160	@ 0xa0
 80002c6:	05db      	lsls	r3, r3, #23
 80002c8:	0011      	movs	r1, r2
 80002ca:	0018      	movs	r0, r3
 80002cc:	f001 fa8a 	bl	80017e4 <HAL_GPIO_Init>
 80002d0:	193b      	adds	r3, r7, r4
 80002d2:	2202      	movs	r2, #2
 80002d4:	601a      	str	r2, [r3, #0]
 80002d6:	193b      	adds	r3, r7, r4
 80002d8:	2200      	movs	r2, #0
 80002da:	605a      	str	r2, [r3, #4]
 80002dc:	193b      	adds	r3, r7, r4
 80002de:	2202      	movs	r2, #2
 80002e0:	609a      	str	r2, [r3, #8]
 80002e2:	193a      	adds	r2, r7, r4
 80002e4:	23a0      	movs	r3, #160	@ 0xa0
 80002e6:	05db      	lsls	r3, r3, #23
 80002e8:	0011      	movs	r1, r2
 80002ea:	0018      	movs	r0, r3
 80002ec:	f001 fa7a 	bl	80017e4 <HAL_GPIO_Init>
 80002f0:	193b      	adds	r3, r7, r4
 80002f2:	220c      	movs	r2, #12
 80002f4:	601a      	str	r2, [r3, #0]
 80002f6:	193b      	adds	r3, r7, r4
 80002f8:	2202      	movs	r2, #2
 80002fa:	605a      	str	r2, [r3, #4]
 80002fc:	193b      	adds	r3, r7, r4
 80002fe:	2200      	movs	r2, #0
 8000300:	609a      	str	r2, [r3, #8]
 8000302:	193b      	adds	r3, r7, r4
 8000304:	2200      	movs	r2, #0
 8000306:	60da      	str	r2, [r3, #12]
 8000308:	193b      	adds	r3, r7, r4
 800030a:	2201      	movs	r2, #1
 800030c:	611a      	str	r2, [r3, #16]
 800030e:	193a      	adds	r2, r7, r4
 8000310:	23a0      	movs	r3, #160	@ 0xa0
 8000312:	05db      	lsls	r3, r3, #23
 8000314:	0011      	movs	r1, r2
 8000316:	0018      	movs	r0, r3
 8000318:	f001 fa64 	bl	80017e4 <HAL_GPIO_Init>
 800031c:	193b      	adds	r3, r7, r4
 800031e:	2220      	movs	r2, #32
 8000320:	601a      	str	r2, [r3, #0]
 8000322:	193b      	adds	r3, r7, r4
 8000324:	2201      	movs	r2, #1
 8000326:	605a      	str	r2, [r3, #4]
 8000328:	193b      	adds	r3, r7, r4
 800032a:	2202      	movs	r2, #2
 800032c:	609a      	str	r2, [r3, #8]
 800032e:	193b      	adds	r3, r7, r4
 8000330:	2203      	movs	r2, #3
 8000332:	60da      	str	r2, [r3, #12]
 8000334:	193a      	adds	r2, r7, r4
 8000336:	23a0      	movs	r3, #160	@ 0xa0
 8000338:	05db      	lsls	r3, r3, #23
 800033a:	0011      	movs	r1, r2
 800033c:	0018      	movs	r0, r3
 800033e:	f001 fa51 	bl	80017e4 <HAL_GPIO_Init>
 8000342:	193b      	adds	r3, r7, r4
 8000344:	220f      	movs	r2, #15
 8000346:	601a      	str	r2, [r3, #0]
 8000348:	193b      	adds	r3, r7, r4
 800034a:	2201      	movs	r2, #1
 800034c:	605a      	str	r2, [r3, #4]
 800034e:	193b      	adds	r3, r7, r4
 8000350:	2202      	movs	r2, #2
 8000352:	609a      	str	r2, [r3, #8]
 8000354:	193b      	adds	r3, r7, r4
 8000356:	2200      	movs	r2, #0
 8000358:	60da      	str	r2, [r3, #12]
 800035a:	193b      	adds	r3, r7, r4
 800035c:	4a15      	ldr	r2, [pc, #84]	@ (80003b4 <MX_GPIO_Init+0x194>)
 800035e:	0019      	movs	r1, r3
 8000360:	0010      	movs	r0, r2
 8000362:	f001 fa3f 	bl	80017e4 <HAL_GPIO_Init>
 8000366:	0021      	movs	r1, r4
 8000368:	187b      	adds	r3, r7, r1
 800036a:	22f0      	movs	r2, #240	@ 0xf0
 800036c:	601a      	str	r2, [r3, #0]
 800036e:	187b      	adds	r3, r7, r1
 8000370:	4a11      	ldr	r2, [pc, #68]	@ (80003b8 <MX_GPIO_Init+0x198>)
 8000372:	605a      	str	r2, [r3, #4]
 8000374:	187b      	adds	r3, r7, r1
 8000376:	2202      	movs	r2, #2
 8000378:	609a      	str	r2, [r3, #8]
 800037a:	187b      	adds	r3, r7, r1
 800037c:	4a0d      	ldr	r2, [pc, #52]	@ (80003b4 <MX_GPIO_Init+0x194>)
 800037e:	0019      	movs	r1, r3
 8000380:	0010      	movs	r0, r2
 8000382:	f001 fa2f 	bl	80017e4 <HAL_GPIO_Init>
 8000386:	2200      	movs	r2, #0
 8000388:	2100      	movs	r1, #0
 800038a:	2005      	movs	r0, #5
 800038c:	f001 f9f8 	bl	8001780 <HAL_NVIC_SetPriority>
 8000390:	2005      	movs	r0, #5
 8000392:	f001 fa0a 	bl	80017aa <HAL_NVIC_EnableIRQ>
 8000396:	2200      	movs	r2, #0
 8000398:	2100      	movs	r1, #0
 800039a:	2007      	movs	r0, #7
 800039c:	f001 f9f0 	bl	8001780 <HAL_NVIC_SetPriority>
 80003a0:	2007      	movs	r0, #7
 80003a2:	f001 fa02 	bl	80017aa <HAL_NVIC_EnableIRQ>
 80003a6:	46c0      	nop			@ (mov r8, r8)
 80003a8:	46bd      	mov	sp, r7
 80003aa:	b00b      	add	sp, #44	@ 0x2c
 80003ac:	bd90      	pop	{r4, r7, pc}
 80003ae:	46c0      	nop			@ (mov r8, r8)
 80003b0:	40021000 	.word	0x40021000
 80003b4:	50000400 	.word	0x50000400
 80003b8:	10110000 	.word	0x10110000

080003bc <main>:
 80003bc:	b580      	push	{r7, lr}
 80003be:	af00      	add	r7, sp, #0
 80003c0:	f001 f8b5 	bl	800152e <HAL_Init>
 80003c4:	f000 f810 	bl	80003e8 <SystemClock_Config>
 80003c8:	f7ff ff2a 	bl	8000220 <MX_GPIO_Init>
 80003cc:	f001 f836 	bl	800143c <MX_TIM14_Init>
 80003d0:	4b04      	ldr	r3, [pc, #16]	@ (80003e4 <main+0x28>)
 80003d2:	0018      	movs	r0, r3
 80003d4:	f001 ff88 	bl	80022e8 <HAL_TIM_Base_Start_IT>
 80003d8:	f000 f912 	bl	8000600 <perifericos_set>
 80003dc:	f000 fa1e 	bl	800081c <perifericos_task>
 80003e0:	e7fc      	b.n	80003dc <main+0x20>
 80003e2:	46c0      	nop			@ (mov r8, r8)
 80003e4:	20000088 	.word	0x20000088

080003e8 <SystemClock_Config>:
 80003e8:	b590      	push	{r4, r7, lr}
 80003ea:	b08d      	sub	sp, #52	@ 0x34
 80003ec:	af00      	add	r7, sp, #0
 80003ee:	2414      	movs	r4, #20
 80003f0:	193b      	adds	r3, r7, r4
 80003f2:	0018      	movs	r0, r3
 80003f4:	231c      	movs	r3, #28
 80003f6:	001a      	movs	r2, r3
 80003f8:	2100      	movs	r1, #0
 80003fa:	f002 f975 	bl	80026e8 <memset>
 80003fe:	003b      	movs	r3, r7
 8000400:	0018      	movs	r0, r3
 8000402:	2314      	movs	r3, #20
 8000404:	001a      	movs	r2, r3
 8000406:	2100      	movs	r1, #0
 8000408:	f002 f96e 	bl	80026e8 <memset>
 800040c:	4b1c      	ldr	r3, [pc, #112]	@ (8000480 <SystemClock_Config+0x98>)
 800040e:	681b      	ldr	r3, [r3, #0]
 8000410:	2207      	movs	r2, #7
 8000412:	4393      	bics	r3, r2
 8000414:	001a      	movs	r2, r3
 8000416:	4b1a      	ldr	r3, [pc, #104]	@ (8000480 <SystemClock_Config+0x98>)
 8000418:	2101      	movs	r1, #1
 800041a:	430a      	orrs	r2, r1
 800041c:	601a      	str	r2, [r3, #0]
 800041e:	193b      	adds	r3, r7, r4
 8000420:	2202      	movs	r2, #2
 8000422:	601a      	str	r2, [r3, #0]
 8000424:	193b      	adds	r3, r7, r4
 8000426:	2280      	movs	r2, #128	@ 0x80
 8000428:	0052      	lsls	r2, r2, #1
 800042a:	60da      	str	r2, [r3, #12]
 800042c:	193b      	adds	r3, r7, r4
 800042e:	2200      	movs	r2, #0
 8000430:	611a      	str	r2, [r3, #16]
 8000432:	193b      	adds	r3, r7, r4
 8000434:	2240      	movs	r2, #64	@ 0x40
 8000436:	615a      	str	r2, [r3, #20]
 8000438:	193b      	adds	r3, r7, r4
 800043a:	0018      	movs	r0, r3
 800043c:	f001 fbd8 	bl	8001bf0 <HAL_RCC_OscConfig>
 8000440:	1e03      	subs	r3, r0, #0
 8000442:	d001      	beq.n	8000448 <SystemClock_Config+0x60>
 8000444:	f000 f830 	bl	80004a8 <Error_Handler>
 8000448:	003b      	movs	r3, r7
 800044a:	2207      	movs	r2, #7
 800044c:	601a      	str	r2, [r3, #0]
 800044e:	003b      	movs	r3, r7
 8000450:	2200      	movs	r2, #0
 8000452:	605a      	str	r2, [r3, #4]
 8000454:	003b      	movs	r3, r7
 8000456:	2200      	movs	r2, #0
 8000458:	609a      	str	r2, [r3, #8]
 800045a:	003b      	movs	r3, r7
 800045c:	2200      	movs	r2, #0
 800045e:	60da      	str	r2, [r3, #12]
 8000460:	003b      	movs	r3, r7
 8000462:	2200      	movs	r2, #0
 8000464:	611a      	str	r2, [r3, #16]
 8000466:	003b      	movs	r3, r7
 8000468:	2101      	movs	r1, #1
 800046a:	0018      	movs	r0, r3
 800046c:	f001 fda4 	bl	8001fb8 <HAL_RCC_ClockConfig>
 8000470:	1e03      	subs	r3, r0, #0
 8000472:	d001      	beq.n	8000478 <SystemClock_Config+0x90>
 8000474:	f000 f818 	bl	80004a8 <Error_Handler>
 8000478:	46c0      	nop			@ (mov r8, r8)
 800047a:	46bd      	mov	sp, r7
 800047c:	b00d      	add	sp, #52	@ 0x34
 800047e:	bd90      	pop	{r4, r7, pc}
 8000480:	40022000 	.word	0x40022000

08000484 <HAL_TIM_PeriodElapsedCallback>:
 8000484:	b580      	push	{r7, lr}
 8000486:	b082      	sub	sp, #8
 8000488:	af00      	add	r7, sp, #0
 800048a:	6078      	str	r0, [r7, #4]
 800048c:	687b      	ldr	r3, [r7, #4]
 800048e:	681b      	ldr	r3, [r3, #0]
 8000490:	4a04      	ldr	r2, [pc, #16]	@ (80004a4 <HAL_TIM_PeriodElapsedCallback+0x20>)
 8000492:	4293      	cmp	r3, r2
 8000494:	d101      	bne.n	800049a <HAL_TIM_PeriodElapsedCallback+0x16>
 8000496:	f000 f985 	bl	80007a4 <perifericos_tick>
 800049a:	46c0      	nop			@ (mov r8, r8)
 800049c:	46bd      	mov	sp, r7
 800049e:	b002      	add	sp, #8
 80004a0:	bd80      	pop	{r7, pc}
 80004a2:	46c0      	nop			@ (mov r8, r8)
 80004a4:	40002000 	.word	0x40002000

080004a8 <Error_Handler>:
 80004a8:	b580      	push	{r7, lr}
 80004aa:	af00      	add	r7, sp, #0
 80004ac:	b672      	cpsid	i
 80004ae:	46c0      	nop			@ (mov r8, r8)
 80004b0:	46c0      	nop			@ (mov r8, r8)
 80004b2:	e7fd      	b.n	80004b0 <Error_Handler+0x8>

080004b4 <perifericos_read_buttons>:
 80004b4:	b580      	push	{r7, lr}
 80004b6:	b082      	sub	sp, #8
 80004b8:	af00      	add	r7, sp, #0
 80004ba:	23a0      	movs	r3, #160	@ 0xa0
 80004bc:	05db      	lsls	r3, r3, #23
 80004be:	2101      	movs	r1, #1
 80004c0:	0018      	movs	r0, r3
 80004c2:	f001 fb01 	bl	8001ac8 <HAL_GPIO_ReadPin>
 80004c6:	0003      	movs	r3, r0
 80004c8:	3b01      	subs	r3, #1
 80004ca:	425a      	negs	r2, r3
 80004cc:	4153      	adcs	r3, r2
 80004ce:	b2da      	uxtb	r2, r3
 80004d0:	1dfb      	adds	r3, r7, #7
 80004d2:	701a      	strb	r2, [r3, #0]
 80004d4:	4b3f      	ldr	r3, [pc, #252]	@ (80005d4 <perifericos_read_buttons+0x120>)
 80004d6:	2110      	movs	r1, #16
 80004d8:	0018      	movs	r0, r3
 80004da:	f001 faf5 	bl	8001ac8 <HAL_GPIO_ReadPin>
 80004de:	0003      	movs	r3, r0
 80004e0:	3b01      	subs	r3, #1
 80004e2:	425a      	negs	r2, r3
 80004e4:	4153      	adcs	r3, r2
 80004e6:	b2da      	uxtb	r2, r3
 80004e8:	1dbb      	adds	r3, r7, #6
 80004ea:	701a      	strb	r2, [r3, #0]
 80004ec:	4b39      	ldr	r3, [pc, #228]	@ (80005d4 <perifericos_read_buttons+0x120>)
 80004ee:	2120      	movs	r1, #32
 80004f0:	0018      	movs	r0, r3
 80004f2:	f001 fae9 	bl	8001ac8 <HAL_GPIO_ReadPin>
 80004f6:	0003      	movs	r3, r0
 80004f8:	3b01      	subs	r3, #1
 80004fa:	425a      	negs	r2, r3
 80004fc:	4153      	adcs	r3, r2
 80004fe:	b2da      	uxtb	r2, r3
 8000500:	1d7b      	adds	r3, r7, #5
 8000502:	701a      	strb	r2, [r3, #0]
 8000504:	4b33      	ldr	r3, [pc, #204]	@ (80005d4 <perifericos_read_buttons+0x120>)
 8000506:	2140      	movs	r1, #64	@ 0x40
 8000508:	0018      	movs	r0, r3
 800050a:	f001 fadd 	bl	8001ac8 <HAL_GPIO_ReadPin>
 800050e:	0003      	movs	r3, r0
 8000510:	3b01      	subs	r3, #1
 8000512:	425a      	negs	r2, r3
 8000514:	4153      	adcs	r3, r2
 8000516:	b2da      	uxtb	r2, r3
 8000518:	1d3b      	adds	r3, r7, #4
 800051a:	701a      	strb	r2, [r3, #0]
 800051c:	4b2d      	ldr	r3, [pc, #180]	@ (80005d4 <perifericos_read_buttons+0x120>)
 800051e:	2180      	movs	r1, #128	@ 0x80
 8000520:	0018      	movs	r0, r3
 8000522:	f001 fad1 	bl	8001ac8 <HAL_GPIO_ReadPin>
 8000526:	0003      	movs	r3, r0
 8000528:	3b01      	subs	r3, #1
 800052a:	425a      	negs	r2, r3
 800052c:	4153      	adcs	r3, r2
 800052e:	b2da      	uxtb	r2, r3
 8000530:	1cfb      	adds	r3, r7, #3
 8000532:	701a      	strb	r2, [r3, #0]
 8000534:	1dfb      	adds	r3, r7, #7
 8000536:	781b      	ldrb	r3, [r3, #0]
 8000538:	2b00      	cmp	r3, #0
 800053a:	d006      	beq.n	800054a <perifericos_read_buttons+0x96>
 800053c:	4b26      	ldr	r3, [pc, #152]	@ (80005d8 <perifericos_read_buttons+0x124>)
 800053e:	781b      	ldrb	r3, [r3, #0]
 8000540:	2b00      	cmp	r3, #0
 8000542:	d102      	bne.n	800054a <perifericos_read_buttons+0x96>
 8000544:	4b25      	ldr	r3, [pc, #148]	@ (80005dc <perifericos_read_buttons+0x128>)
 8000546:	2201      	movs	r2, #1
 8000548:	701a      	strb	r2, [r3, #0]
 800054a:	1dbb      	adds	r3, r7, #6
 800054c:	781b      	ldrb	r3, [r3, #0]
 800054e:	2b00      	cmp	r3, #0
 8000550:	d006      	beq.n	8000560 <perifericos_read_buttons+0xac>
 8000552:	4b23      	ldr	r3, [pc, #140]	@ (80005e0 <perifericos_read_buttons+0x12c>)
 8000554:	781b      	ldrb	r3, [r3, #0]
 8000556:	2b00      	cmp	r3, #0
 8000558:	d102      	bne.n	8000560 <perifericos_read_buttons+0xac>
 800055a:	4b22      	ldr	r3, [pc, #136]	@ (80005e4 <perifericos_read_buttons+0x130>)
 800055c:	2201      	movs	r2, #1
 800055e:	701a      	strb	r2, [r3, #0]
 8000560:	1d7b      	adds	r3, r7, #5
 8000562:	781b      	ldrb	r3, [r3, #0]
 8000564:	2b00      	cmp	r3, #0
 8000566:	d006      	beq.n	8000576 <perifericos_read_buttons+0xc2>
 8000568:	4b1f      	ldr	r3, [pc, #124]	@ (80005e8 <perifericos_read_buttons+0x134>)
 800056a:	781b      	ldrb	r3, [r3, #0]
 800056c:	2b00      	cmp	r3, #0
 800056e:	d102      	bne.n	8000576 <perifericos_read_buttons+0xc2>
 8000570:	4b1e      	ldr	r3, [pc, #120]	@ (80005ec <perifericos_read_buttons+0x138>)
 8000572:	2201      	movs	r2, #1
 8000574:	701a      	strb	r2, [r3, #0]
 8000576:	1d3b      	adds	r3, r7, #4
 8000578:	781b      	ldrb	r3, [r3, #0]
 800057a:	2b00      	cmp	r3, #0
 800057c:	d006      	beq.n	800058c <perifericos_read_buttons+0xd8>
 800057e:	4b1c      	ldr	r3, [pc, #112]	@ (80005f0 <perifericos_read_buttons+0x13c>)
 8000580:	781b      	ldrb	r3, [r3, #0]
 8000582:	2b00      	cmp	r3, #0
 8000584:	d102      	bne.n	800058c <perifericos_read_buttons+0xd8>
 8000586:	4b1b      	ldr	r3, [pc, #108]	@ (80005f4 <perifericos_read_buttons+0x140>)
 8000588:	2201      	movs	r2, #1
 800058a:	701a      	strb	r2, [r3, #0]
 800058c:	1cfb      	adds	r3, r7, #3
 800058e:	781b      	ldrb	r3, [r3, #0]
 8000590:	2b00      	cmp	r3, #0
 8000592:	d006      	beq.n	80005a2 <perifericos_read_buttons+0xee>
 8000594:	4b18      	ldr	r3, [pc, #96]	@ (80005f8 <perifericos_read_buttons+0x144>)
 8000596:	781b      	ldrb	r3, [r3, #0]
 8000598:	2b00      	cmp	r3, #0
 800059a:	d102      	bne.n	80005a2 <perifericos_read_buttons+0xee>
 800059c:	4b17      	ldr	r3, [pc, #92]	@ (80005fc <perifericos_read_buttons+0x148>)
 800059e:	2201      	movs	r2, #1
 80005a0:	701a      	strb	r2, [r3, #0]
 80005a2:	4b0d      	ldr	r3, [pc, #52]	@ (80005d8 <perifericos_read_buttons+0x124>)
 80005a4:	1dfa      	adds	r2, r7, #7
 80005a6:	7812      	ldrb	r2, [r2, #0]
 80005a8:	701a      	strb	r2, [r3, #0]
 80005aa:	4b0d      	ldr	r3, [pc, #52]	@ (80005e0 <perifericos_read_buttons+0x12c>)
 80005ac:	1dba      	adds	r2, r7, #6
 80005ae:	7812      	ldrb	r2, [r2, #0]
 80005b0:	701a      	strb	r2, [r3, #0]
 80005b2:	4b0d      	ldr	r3, [pc, #52]	@ (80005e8 <perifericos_read_buttons+0x134>)
 80005b4:	1d7a      	adds	r2, r7, #5
 80005b6:	7812      	ldrb	r2, [r2, #0]
 80005b8:	701a      	strb	r2, [r3, #0]
 80005ba:	4b0d      	ldr	r3, [pc, #52]	@ (80005f0 <perifericos_read_buttons+0x13c>)
 80005bc:	1d3a      	adds	r2, r7, #4
 80005be:	7812      	ldrb	r2, [r2, #0]
 80005c0:	701a      	strb	r2, [r3, #0]
 80005c2:	4b0d      	ldr	r3, [pc, #52]	@ (80005f8 <perifericos_read_buttons+0x144>)
 80005c4:	1cfa      	adds	r2, r7, #3
 80005c6:	7812      	ldrb	r2, [r2, #0]
 80005c8:	701a      	strb	r2, [r3, #0]
 80005ca:	46c0      	nop			@ (mov r8, r8)
 80005cc:	46bd      	mov	sp, r7
 80005ce:	b002      	add	sp, #8
 80005d0:	bd80      	pop	{r7, pc}
 80005d2:	46c0      	nop			@ (mov r8, r8)
 80005d4:	50000400 	.word	0x50000400
 80005d8:	20000048 	.word	0x20000048
 80005dc:	2000007e 	.word	0x2000007e
 80005e0:	20000049 	.word	0x20000049
 80005e4:	2000007f 	.word	0x2000007f
 80005e8:	2000004a 	.word	0x2000004a
 80005ec:	20000080 	.word	0x20000080
 80005f0:	2000004b 	.word	0x2000004b
 80005f4:	20000082 	.word	0x20000082
 80005f8:	2000004c 	.word	0x2000004c
 80005fc:	20000081 	.word	0x20000081

08000600 <perifericos_set>:
 8000600:	b580      	push	{r7, lr}
 8000602:	af00      	add	r7, sp, #0
 8000604:	4b46      	ldr	r3, [pc, #280]	@ (8000720 <perifericos_set+0x120>)
 8000606:	2201      	movs	r2, #1
 8000608:	701a      	strb	r2, [r3, #0]
 800060a:	4b46      	ldr	r3, [pc, #280]	@ (8000724 <perifericos_set+0x124>)
 800060c:	2200      	movs	r2, #0
 800060e:	701a      	strb	r2, [r3, #0]
 8000610:	4b45      	ldr	r3, [pc, #276]	@ (8000728 <perifericos_set+0x128>)
 8000612:	781b      	ldrb	r3, [r3, #0]
 8000614:	b2db      	uxtb	r3, r3
 8000616:	2b00      	cmp	r3, #0
 8000618:	d106      	bne.n	8000628 <perifericos_set+0x28>
 800061a:	4b44      	ldr	r3, [pc, #272]	@ (800072c <perifericos_set+0x12c>)
 800061c:	2200      	movs	r2, #0
 800061e:	701a      	strb	r2, [r3, #0]
 8000620:	4b43      	ldr	r3, [pc, #268]	@ (8000730 <perifericos_set+0x130>)
 8000622:	2200      	movs	r2, #0
 8000624:	701a      	strb	r2, [r3, #0]
 8000626:	e016      	b.n	8000656 <perifericos_set+0x56>
 8000628:	4b3f      	ldr	r3, [pc, #252]	@ (8000728 <perifericos_set+0x128>)
 800062a:	781b      	ldrb	r3, [r3, #0]
 800062c:	b2db      	uxtb	r3, r3
 800062e:	2b01      	cmp	r3, #1
 8000630:	d106      	bne.n	8000640 <perifericos_set+0x40>
 8000632:	4b3e      	ldr	r3, [pc, #248]	@ (800072c <perifericos_set+0x12c>)
 8000634:	2201      	movs	r2, #1
 8000636:	701a      	strb	r2, [r3, #0]
 8000638:	4b3d      	ldr	r3, [pc, #244]	@ (8000730 <perifericos_set+0x130>)
 800063a:	2200      	movs	r2, #0
 800063c:	701a      	strb	r2, [r3, #0]
 800063e:	e00a      	b.n	8000656 <perifericos_set+0x56>
 8000640:	4b39      	ldr	r3, [pc, #228]	@ (8000728 <perifericos_set+0x128>)
 8000642:	781b      	ldrb	r3, [r3, #0]
 8000644:	b2db      	uxtb	r3, r3
 8000646:	2b02      	cmp	r3, #2
 8000648:	d105      	bne.n	8000656 <perifericos_set+0x56>
 800064a:	4b38      	ldr	r3, [pc, #224]	@ (800072c <perifericos_set+0x12c>)
 800064c:	2200      	movs	r2, #0
 800064e:	701a      	strb	r2, [r3, #0]
 8000650:	4b37      	ldr	r3, [pc, #220]	@ (8000730 <perifericos_set+0x130>)
 8000652:	2201      	movs	r2, #1
 8000654:	701a      	strb	r2, [r3, #0]
 8000656:	4b37      	ldr	r3, [pc, #220]	@ (8000734 <perifericos_set+0x134>)
 8000658:	781b      	ldrb	r3, [r3, #0]
 800065a:	b2db      	uxtb	r3, r3
 800065c:	2b00      	cmp	r3, #0
 800065e:	d106      	bne.n	800066e <perifericos_set+0x6e>
 8000660:	4b35      	ldr	r3, [pc, #212]	@ (8000738 <perifericos_set+0x138>)
 8000662:	2200      	movs	r2, #0
 8000664:	701a      	strb	r2, [r3, #0]
 8000666:	4b35      	ldr	r3, [pc, #212]	@ (800073c <perifericos_set+0x13c>)
 8000668:	2200      	movs	r2, #0
 800066a:	701a      	strb	r2, [r3, #0]
 800066c:	e016      	b.n	800069c <perifericos_set+0x9c>
 800066e:	4b31      	ldr	r3, [pc, #196]	@ (8000734 <perifericos_set+0x134>)
 8000670:	781b      	ldrb	r3, [r3, #0]
 8000672:	b2db      	uxtb	r3, r3
 8000674:	2b01      	cmp	r3, #1
 8000676:	d106      	bne.n	8000686 <perifericos_set+0x86>
 8000678:	4b2f      	ldr	r3, [pc, #188]	@ (8000738 <perifericos_set+0x138>)
 800067a:	2201      	movs	r2, #1
 800067c:	701a      	strb	r2, [r3, #0]
 800067e:	4b2f      	ldr	r3, [pc, #188]	@ (800073c <perifericos_set+0x13c>)
 8000680:	2200      	movs	r2, #0
 8000682:	701a      	strb	r2, [r3, #0]
 8000684:	e00a      	b.n	800069c <perifericos_set+0x9c>
 8000686:	4b2b      	ldr	r3, [pc, #172]	@ (8000734 <perifericos_set+0x134>)
 8000688:	781b      	ldrb	r3, [r3, #0]
 800068a:	b2db      	uxtb	r3, r3
 800068c:	2b02      	cmp	r3, #2
 800068e:	d105      	bne.n	800069c <perifericos_set+0x9c>
 8000690:	4b29      	ldr	r3, [pc, #164]	@ (8000738 <perifericos_set+0x138>)
 8000692:	2200      	movs	r2, #0
 8000694:	701a      	strb	r2, [r3, #0]
 8000696:	4b29      	ldr	r3, [pc, #164]	@ (800073c <perifericos_set+0x13c>)
 8000698:	2201      	movs	r2, #1
 800069a:	701a      	strb	r2, [r3, #0]
 800069c:	4b28      	ldr	r3, [pc, #160]	@ (8000740 <perifericos_set+0x140>)
 800069e:	781b      	ldrb	r3, [r3, #0]
 80006a0:	b2db      	uxtb	r3, r3
 80006a2:	2b00      	cmp	r3, #0
 80006a4:	d106      	bne.n	80006b4 <perifericos_set+0xb4>
 80006a6:	4b27      	ldr	r3, [pc, #156]	@ (8000744 <perifericos_set+0x144>)
 80006a8:	2200      	movs	r2, #0
 80006aa:	701a      	strb	r2, [r3, #0]
 80006ac:	4b26      	ldr	r3, [pc, #152]	@ (8000748 <perifericos_set+0x148>)
 80006ae:	2200      	movs	r2, #0
 80006b0:	701a      	strb	r2, [r3, #0]
 80006b2:	e016      	b.n	80006e2 <perifericos_set+0xe2>
 80006b4:	4b22      	ldr	r3, [pc, #136]	@ (8000740 <perifericos_set+0x140>)
 80006b6:	781b      	ldrb	r3, [r3, #0]
 80006b8:	b2db      	uxtb	r3, r3
 80006ba:	2b01      	cmp	r3, #1
 80006bc:	d106      	bne.n	80006cc <perifericos_set+0xcc>
 80006be:	4b21      	ldr	r3, [pc, #132]	@ (8000744 <perifericos_set+0x144>)
 80006c0:	2201      	movs	r2, #1
 80006c2:	701a      	strb	r2, [r3, #0]
 80006c4:	4b20      	ldr	r3, [pc, #128]	@ (8000748 <perifericos_set+0x148>)
 80006c6:	2200      	movs	r2, #0
 80006c8:	701a      	strb	r2, [r3, #0]
 80006ca:	e00a      	b.n	80006e2 <perifericos_set+0xe2>
 80006cc:	4b1c      	ldr	r3, [pc, #112]	@ (8000740 <perifericos_set+0x140>)
 80006ce:	781b      	ldrb	r3, [r3, #0]
 80006d0:	b2db      	uxtb	r3, r3
 80006d2:	2b02      	cmp	r3, #2
 80006d4:	d105      	bne.n	80006e2 <perifericos_set+0xe2>
 80006d6:	4b1b      	ldr	r3, [pc, #108]	@ (8000744 <perifericos_set+0x144>)
 80006d8:	2200      	movs	r2, #0
 80006da:	701a      	strb	r2, [r3, #0]
 80006dc:	4b1a      	ldr	r3, [pc, #104]	@ (8000748 <perifericos_set+0x148>)
 80006de:	2201      	movs	r2, #1
 80006e0:	701a      	strb	r2, [r3, #0]
 80006e2:	4b19      	ldr	r3, [pc, #100]	@ (8000748 <perifericos_set+0x148>)
 80006e4:	781b      	ldrb	r3, [r3, #0]
 80006e6:	b2db      	uxtb	r3, r3
 80006e8:	001a      	movs	r2, r3
 80006ea:	4b18      	ldr	r3, [pc, #96]	@ (800074c <perifericos_set+0x14c>)
 80006ec:	2101      	movs	r1, #1
 80006ee:	0018      	movs	r0, r3
 80006f0:	f001 fa07 	bl	8001b02 <HAL_GPIO_WritePin>
 80006f4:	4b11      	ldr	r3, [pc, #68]	@ (800073c <perifericos_set+0x13c>)
 80006f6:	781b      	ldrb	r3, [r3, #0]
 80006f8:	b2db      	uxtb	r3, r3
 80006fa:	001a      	movs	r2, r3
 80006fc:	4b13      	ldr	r3, [pc, #76]	@ (800074c <perifericos_set+0x14c>)
 80006fe:	2104      	movs	r1, #4
 8000700:	0018      	movs	r0, r3
 8000702:	f001 f9fe 	bl	8001b02 <HAL_GPIO_WritePin>
 8000706:	4b0a      	ldr	r3, [pc, #40]	@ (8000730 <perifericos_set+0x130>)
 8000708:	781b      	ldrb	r3, [r3, #0]
 800070a:	b2db      	uxtb	r3, r3
 800070c:	001a      	movs	r2, r3
 800070e:	4b0f      	ldr	r3, [pc, #60]	@ (800074c <perifericos_set+0x14c>)
 8000710:	2108      	movs	r1, #8
 8000712:	0018      	movs	r0, r3
 8000714:	f001 f9f5 	bl	8001b02 <HAL_GPIO_WritePin>
 8000718:	46c0      	nop			@ (mov r8, r8)
 800071a:	46bd      	mov	sp, r7
 800071c:	bd80      	pop	{r7, pc}
 800071e:	46c0      	nop			@ (mov r8, r8)
 8000720:	2000007c 	.word	0x2000007c
 8000724:	2000007d 	.word	0x2000007d
 8000728:	20000005 	.word	0x20000005
 800072c:	2000007a 	.word	0x2000007a
 8000730:	2000007b 	.word	0x2000007b
 8000734:	20000006 	.word	0x20000006
 8000738:	20000078 	.word	0x20000078
 800073c:	20000079 	.word	0x20000079
 8000740:	20000007 	.word	0x20000007
 8000744:	20000076 	.word	0x20000076
 8000748:	20000077 	.word	0x20000077
 800074c:	50000400 	.word	0x50000400

08000750 <sensor_read>:
 8000750:	b590      	push	{r4, r7, lr}
 8000752:	b083      	sub	sp, #12
 8000754:	af00      	add	r7, sp, #0
 8000756:	4b12      	ldr	r3, [pc, #72]	@ (80007a0 <sensor_read+0x50>)
 8000758:	781b      	ldrb	r3, [r3, #0]
 800075a:	b2db      	uxtb	r3, r3
 800075c:	2b00      	cmp	r3, #0
 800075e:	d101      	bne.n	8000764 <sensor_read+0x14>
 8000760:	2300      	movs	r3, #0
 8000762:	e019      	b.n	8000798 <sensor_read+0x48>
 8000764:	1dfc      	adds	r4, r7, #7
 8000766:	23a0      	movs	r3, #160	@ 0xa0
 8000768:	05db      	lsls	r3, r3, #23
 800076a:	2102      	movs	r1, #2
 800076c:	0018      	movs	r0, r3
 800076e:	f001 f9ab 	bl	8001ac8 <HAL_GPIO_ReadPin>
 8000772:	0003      	movs	r3, r0
 8000774:	7023      	strb	r3, [r4, #0]
 8000776:	4b0a      	ldr	r3, [pc, #40]	@ (80007a0 <sensor_read+0x50>)
 8000778:	781b      	ldrb	r3, [r3, #0]
 800077a:	b2db      	uxtb	r3, r3
 800077c:	2b01      	cmp	r3, #1
 800077e:	d106      	bne.n	800078e <sensor_read+0x3e>
 8000780:	1dfb      	adds	r3, r7, #7
 8000782:	781b      	ldrb	r3, [r3, #0]
 8000784:	3b01      	subs	r3, #1
 8000786:	425a      	negs	r2, r3
 8000788:	4153      	adcs	r3, r2
 800078a:	b2db      	uxtb	r3, r3
 800078c:	e004      	b.n	8000798 <sensor_read+0x48>
 800078e:	1dfb      	adds	r3, r7, #7
 8000790:	781b      	ldrb	r3, [r3, #0]
 8000792:	425a      	negs	r2, r3
 8000794:	4153      	adcs	r3, r2
 8000796:	b2db      	uxtb	r3, r3
 8000798:	0018      	movs	r0, r3
 800079a:	46bd      	mov	sp, r7
 800079c:	b003      	add	sp, #12
 800079e:	bd90      	pop	{r4, r7, pc}
 80007a0:	20000010 	.word	0x20000010

080007a4 <perifericos_tick>:
 80007a4:	b580      	push	{r7, lr}
 80007a6:	af00      	add	r7, sp, #0
 80007a8:	4b17      	ldr	r3, [pc, #92]	@ (8000808 <perifericos_tick+0x64>)
 80007aa:	681b      	ldr	r3, [r3, #0]
 80007ac:	2b00      	cmp	r3, #0
 80007ae:	d004      	beq.n	80007ba <perifericos_tick+0x16>
 80007b0:	4b15      	ldr	r3, [pc, #84]	@ (8000808 <perifericos_tick+0x64>)
 80007b2:	681b      	ldr	r3, [r3, #0]
 80007b4:	1e5a      	subs	r2, r3, #1
 80007b6:	4b14      	ldr	r3, [pc, #80]	@ (8000808 <perifericos_tick+0x64>)
 80007b8:	601a      	str	r2, [r3, #0]
 80007ba:	4b14      	ldr	r3, [pc, #80]	@ (800080c <perifericos_tick+0x68>)
 80007bc:	681b      	ldr	r3, [r3, #0]
 80007be:	2b00      	cmp	r3, #0
 80007c0:	d004      	beq.n	80007cc <perifericos_tick+0x28>
 80007c2:	4b12      	ldr	r3, [pc, #72]	@ (800080c <perifericos_tick+0x68>)
 80007c4:	681b      	ldr	r3, [r3, #0]
 80007c6:	1e5a      	subs	r2, r3, #1
 80007c8:	4b10      	ldr	r3, [pc, #64]	@ (800080c <perifericos_tick+0x68>)
 80007ca:	601a      	str	r2, [r3, #0]
 80007cc:	4b10      	ldr	r3, [pc, #64]	@ (8000810 <perifericos_tick+0x6c>)
 80007ce:	681b      	ldr	r3, [r3, #0]
 80007d0:	2b00      	cmp	r3, #0
 80007d2:	d004      	beq.n	80007de <perifericos_tick+0x3a>
 80007d4:	4b0e      	ldr	r3, [pc, #56]	@ (8000810 <perifericos_tick+0x6c>)
 80007d6:	681b      	ldr	r3, [r3, #0]
 80007d8:	1e5a      	subs	r2, r3, #1
 80007da:	4b0d      	ldr	r3, [pc, #52]	@ (8000810 <perifericos_tick+0x6c>)
 80007dc:	601a      	str	r2, [r3, #0]
 80007de:	4b0d      	ldr	r3, [pc, #52]	@ (8000814 <perifericos_tick+0x70>)
 80007e0:	681b      	ldr	r3, [r3, #0]
 80007e2:	2b00      	cmp	r3, #0
 80007e4:	d004      	beq.n	80007f0 <perifericos_tick+0x4c>
 80007e6:	4b0b      	ldr	r3, [pc, #44]	@ (8000814 <perifericos_tick+0x70>)
 80007e8:	681b      	ldr	r3, [r3, #0]
 80007ea:	1e5a      	subs	r2, r3, #1
 80007ec:	4b09      	ldr	r3, [pc, #36]	@ (8000814 <perifericos_tick+0x70>)
 80007ee:	601a      	str	r2, [r3, #0]
 80007f0:	4b09      	ldr	r3, [pc, #36]	@ (8000818 <perifericos_tick+0x74>)
 80007f2:	681b      	ldr	r3, [r3, #0]
 80007f4:	2b00      	cmp	r3, #0
 80007f6:	d004      	beq.n	8000802 <perifericos_tick+0x5e>
 80007f8:	4b07      	ldr	r3, [pc, #28]	@ (8000818 <perifericos_tick+0x74>)
 80007fa:	681b      	ldr	r3, [r3, #0]
 80007fc:	1e5a      	subs	r2, r3, #1
 80007fe:	4b06      	ldr	r3, [pc, #24]	@ (8000818 <perifericos_tick+0x74>)
 8000800:	601a      	str	r2, [r3, #0]
 8000802:	46c0      	nop			@ (mov r8, r8)
 8000804:	46bd      	mov	sp, r7
 8000806:	bd80      	pop	{r7, pc}
 8000808:	20000060 	.word	0x20000060
 800080c:	20000064 	.word	0x20000064
 8000810:	20000068 	.word	0x20000068
 8000814:	2000006c 	.word	0x2000006c
 8000818:	20000070 	.word	0x20000070

0800081c <perifericos_task>:
 800081c:	b590      	push	{r4, r7, lr}
 800081e:	b083      	sub	sp, #12
 8000820:	af00      	add	r7, sp, #0
 8000822:	f7ff fe47 	bl	80004b4 <perifericos_read_buttons>
 8000826:	4bdc      	ldr	r3, [pc, #880]	@ (8000b98 <perifericos_task+0x37c>)
 8000828:	781b      	ldrb	r3, [r3, #0]
 800082a:	b2db      	uxtb	r3, r3
 800082c:	2b01      	cmp	r3, #1
 800082e:	d013      	beq.n	8000858 <perifericos_task+0x3c>
 8000830:	4bd9      	ldr	r3, [pc, #868]	@ (8000b98 <perifericos_task+0x37c>)
 8000832:	781b      	ldrb	r3, [r3, #0]
 8000834:	b2db      	uxtb	r3, r3
 8000836:	2b02      	cmp	r3, #2
 8000838:	d00e      	beq.n	8000858 <perifericos_task+0x3c>
 800083a:	4bd7      	ldr	r3, [pc, #860]	@ (8000b98 <perifericos_task+0x37c>)
 800083c:	781b      	ldrb	r3, [r3, #0]
 800083e:	b2db      	uxtb	r3, r3
 8000840:	2b03      	cmp	r3, #3
 8000842:	d009      	beq.n	8000858 <perifericos_task+0x3c>
 8000844:	4bd4      	ldr	r3, [pc, #848]	@ (8000b98 <perifericos_task+0x37c>)
 8000846:	781b      	ldrb	r3, [r3, #0]
 8000848:	b2db      	uxtb	r3, r3
 800084a:	2b04      	cmp	r3, #4
 800084c:	d004      	beq.n	8000858 <perifericos_task+0x3c>
 800084e:	4bd2      	ldr	r3, [pc, #840]	@ (8000b98 <perifericos_task+0x37c>)
 8000850:	781b      	ldrb	r3, [r3, #0]
 8000852:	b2db      	uxtb	r3, r3
 8000854:	2b08      	cmp	r3, #8
 8000856:	d101      	bne.n	800085c <perifericos_task+0x40>
 8000858:	2201      	movs	r2, #1
 800085a:	e000      	b.n	800085e <perifericos_task+0x42>
 800085c:	2200      	movs	r2, #0
 800085e:	1dfb      	adds	r3, r7, #7
 8000860:	701a      	strb	r2, [r3, #0]
 8000862:	781a      	ldrb	r2, [r3, #0]
 8000864:	2101      	movs	r1, #1
 8000866:	400a      	ands	r2, r1
 8000868:	701a      	strb	r2, [r3, #0]
 800086a:	1dbc      	adds	r4, r7, #6
 800086c:	f7ff ff70 	bl	8000750 <sensor_read>
 8000870:	0003      	movs	r3, r0
 8000872:	7023      	strb	r3, [r4, #0]
 8000874:	4bc9      	ldr	r3, [pc, #804]	@ (8000b9c <perifericos_task+0x380>)
 8000876:	781b      	ldrb	r3, [r3, #0]
 8000878:	1dba      	adds	r2, r7, #6
 800087a:	7812      	ldrb	r2, [r2, #0]
 800087c:	429a      	cmp	r2, r3
 800087e:	d008      	beq.n	8000892 <perifericos_task+0x76>
 8000880:	4bc6      	ldr	r3, [pc, #792]	@ (8000b9c <perifericos_task+0x380>)
 8000882:	1dba      	adds	r2, r7, #6
 8000884:	7812      	ldrb	r2, [r2, #0]
 8000886:	701a      	strb	r2, [r3, #0]
 8000888:	4bc5      	ldr	r3, [pc, #788]	@ (8000ba0 <perifericos_task+0x384>)
 800088a:	681a      	ldr	r2, [r3, #0]
 800088c:	4bc5      	ldr	r3, [pc, #788]	@ (8000ba4 <perifericos_task+0x388>)
 800088e:	601a      	str	r2, [r3, #0]
 8000890:	e007      	b.n	80008a2 <perifericos_task+0x86>
 8000892:	4bc4      	ldr	r3, [pc, #784]	@ (8000ba4 <perifericos_task+0x388>)
 8000894:	681b      	ldr	r3, [r3, #0]
 8000896:	2b00      	cmp	r3, #0
 8000898:	d103      	bne.n	80008a2 <perifericos_task+0x86>
 800089a:	4bc3      	ldr	r3, [pc, #780]	@ (8000ba8 <perifericos_task+0x38c>)
 800089c:	1dba      	adds	r2, r7, #6
 800089e:	7812      	ldrb	r2, [r2, #0]
 80008a0:	701a      	strb	r2, [r3, #0]
 80008a2:	4bc2      	ldr	r3, [pc, #776]	@ (8000bac <perifericos_task+0x390>)
 80008a4:	781b      	ldrb	r3, [r3, #0]
 80008a6:	b2db      	uxtb	r3, r3
 80008a8:	2b00      	cmp	r3, #0
 80008aa:	d010      	beq.n	80008ce <perifericos_task+0xb2>
 80008ac:	1dfb      	adds	r3, r7, #7
 80008ae:	781b      	ldrb	r3, [r3, #0]
 80008b0:	2b00      	cmp	r3, #0
 80008b2:	d009      	beq.n	80008c8 <perifericos_task+0xac>
 80008b4:	4bbe      	ldr	r3, [pc, #760]	@ (8000bb0 <perifericos_task+0x394>)
 80008b6:	781b      	ldrb	r3, [r3, #0]
 80008b8:	b2db      	uxtb	r3, r3
 80008ba:	2b00      	cmp	r3, #0
 80008bc:	d004      	beq.n	80008c8 <perifericos_task+0xac>
 80008be:	4bbd      	ldr	r3, [pc, #756]	@ (8000bb4 <perifericos_task+0x398>)
 80008c0:	2104      	movs	r1, #4
 80008c2:	0018      	movs	r0, r3
 80008c4:	f001 f93a 	bl	8001b3c <HAL_GPIO_TogglePin>
 80008c8:	4bb8      	ldr	r3, [pc, #736]	@ (8000bac <perifericos_task+0x390>)
 80008ca:	2200      	movs	r2, #0
 80008cc:	701a      	strb	r2, [r3, #0]
 80008ce:	4bba      	ldr	r3, [pc, #744]	@ (8000bb8 <perifericos_task+0x39c>)
 80008d0:	781b      	ldrb	r3, [r3, #0]
 80008d2:	b2db      	uxtb	r3, r3
 80008d4:	2b00      	cmp	r3, #0
 80008d6:	d024      	beq.n	8000922 <perifericos_task+0x106>
 80008d8:	4bb7      	ldr	r3, [pc, #732]	@ (8000bb8 <perifericos_task+0x39c>)
 80008da:	2200      	movs	r2, #0
 80008dc:	701a      	strb	r2, [r3, #0]
 80008de:	4bb7      	ldr	r3, [pc, #732]	@ (8000bbc <perifericos_task+0x3a0>)
 80008e0:	781b      	ldrb	r3, [r3, #0]
 80008e2:	b2db      	uxtb	r3, r3
 80008e4:	2b00      	cmp	r3, #0
 80008e6:	d01c      	beq.n	8000922 <perifericos_task+0x106>
 80008e8:	4bab      	ldr	r3, [pc, #684]	@ (8000b98 <perifericos_task+0x37c>)
 80008ea:	781b      	ldrb	r3, [r3, #0]
 80008ec:	b2db      	uxtb	r3, r3
 80008ee:	2b02      	cmp	r3, #2
 80008f0:	d117      	bne.n	8000922 <perifericos_task+0x106>
 80008f2:	1dfb      	adds	r3, r7, #7
 80008f4:	781b      	ldrb	r3, [r3, #0]
 80008f6:	2b00      	cmp	r3, #0
 80008f8:	d013      	beq.n	8000922 <perifericos_task+0x106>
 80008fa:	f7ff ff29 	bl	8000750 <sensor_read>
 80008fe:	0003      	movs	r3, r0
 8000900:	2b01      	cmp	r3, #1
 8000902:	d10e      	bne.n	8000922 <perifericos_task+0x106>
 8000904:	4bae      	ldr	r3, [pc, #696]	@ (8000bc0 <perifericos_task+0x3a4>)
 8000906:	781b      	ldrb	r3, [r3, #0]
 8000908:	b2db      	uxtb	r3, r3
 800090a:	1e5a      	subs	r2, r3, #1
 800090c:	4193      	sbcs	r3, r2
 800090e:	b2db      	uxtb	r3, r3
 8000910:	2201      	movs	r2, #1
 8000912:	4053      	eors	r3, r2
 8000914:	b2db      	uxtb	r3, r3
 8000916:	1c1a      	adds	r2, r3, #0
 8000918:	2301      	movs	r3, #1
 800091a:	4013      	ands	r3, r2
 800091c:	b2da      	uxtb	r2, r3
 800091e:	4ba8      	ldr	r3, [pc, #672]	@ (8000bc0 <perifericos_task+0x3a4>)
 8000920:	701a      	strb	r2, [r3, #0]
 8000922:	4b9d      	ldr	r3, [pc, #628]	@ (8000b98 <perifericos_task+0x37c>)
 8000924:	781b      	ldrb	r3, [r3, #0]
 8000926:	b2db      	uxtb	r3, r3
 8000928:	2b0b      	cmp	r3, #11
 800092a:	d901      	bls.n	8000930 <perifericos_task+0x114>
 800092c:	f000 fceb 	bl	8001306 <perifericos_task+0xaea>
 8000930:	009a      	lsls	r2, r3, #2
 8000932:	4ba4      	ldr	r3, [pc, #656]	@ (8000bc4 <perifericos_task+0x3a8>)
 8000934:	18d3      	adds	r3, r2, r3
 8000936:	681b      	ldr	r3, [r3, #0]
 8000938:	469f      	mov	pc, r3
 800093a:	4ba3      	ldr	r3, [pc, #652]	@ (8000bc8 <perifericos_task+0x3ac>)
 800093c:	2200      	movs	r2, #0
 800093e:	701a      	strb	r2, [r3, #0]
 8000940:	4ba2      	ldr	r3, [pc, #648]	@ (8000bcc <perifericos_task+0x3b0>)
 8000942:	781b      	ldrb	r3, [r3, #0]
 8000944:	b2db      	uxtb	r3, r3
 8000946:	2b00      	cmp	r3, #0
 8000948:	d03c      	beq.n	80009c4 <perifericos_task+0x1a8>
 800094a:	4ba1      	ldr	r3, [pc, #644]	@ (8000bd0 <perifericos_task+0x3b4>)
 800094c:	781b      	ldrb	r3, [r3, #0]
 800094e:	b2db      	uxtb	r3, r3
 8000950:	2b00      	cmp	r3, #0
 8000952:	d037      	beq.n	80009c4 <perifericos_task+0x1a8>
 8000954:	4b9d      	ldr	r3, [pc, #628]	@ (8000bcc <perifericos_task+0x3b0>)
 8000956:	2200      	movs	r2, #0
 8000958:	701a      	strb	r2, [r3, #0]
 800095a:	4b9e      	ldr	r3, [pc, #632]	@ (8000bd4 <perifericos_task+0x3b8>)
 800095c:	2200      	movs	r2, #0
 800095e:	701a      	strb	r2, [r3, #0]
 8000960:	4b9d      	ldr	r3, [pc, #628]	@ (8000bd8 <perifericos_task+0x3bc>)
 8000962:	781b      	ldrb	r3, [r3, #0]
 8000964:	b2db      	uxtb	r3, r3
 8000966:	001a      	movs	r2, r3
 8000968:	4b92      	ldr	r3, [pc, #584]	@ (8000bb4 <perifericos_task+0x398>)
 800096a:	2102      	movs	r1, #2
 800096c:	0018      	movs	r0, r3
 800096e:	f001 f8c8 	bl	8001b02 <HAL_GPIO_WritePin>
 8000972:	4b9a      	ldr	r3, [pc, #616]	@ (8000bdc <perifericos_task+0x3c0>)
 8000974:	781b      	ldrb	r3, [r3, #0]
 8000976:	b2db      	uxtb	r3, r3
 8000978:	001a      	movs	r2, r3
 800097a:	4b8e      	ldr	r3, [pc, #568]	@ (8000bb4 <perifericos_task+0x398>)
 800097c:	2101      	movs	r1, #1
 800097e:	0018      	movs	r0, r3
 8000980:	f001 f8bf 	bl	8001b02 <HAL_GPIO_WritePin>
 8000984:	4b96      	ldr	r3, [pc, #600]	@ (8000be0 <perifericos_task+0x3c4>)
 8000986:	781b      	ldrb	r3, [r3, #0]
 8000988:	b2db      	uxtb	r3, r3
 800098a:	001a      	movs	r2, r3
 800098c:	4b89      	ldr	r3, [pc, #548]	@ (8000bb4 <perifericos_task+0x398>)
 800098e:	2104      	movs	r1, #4
 8000990:	0018      	movs	r0, r3
 8000992:	f001 f8b6 	bl	8001b02 <HAL_GPIO_WritePin>
 8000996:	4b93      	ldr	r3, [pc, #588]	@ (8000be4 <perifericos_task+0x3c8>)
 8000998:	781b      	ldrb	r3, [r3, #0]
 800099a:	b2db      	uxtb	r3, r3
 800099c:	001a      	movs	r2, r3
 800099e:	4b85      	ldr	r3, [pc, #532]	@ (8000bb4 <perifericos_task+0x398>)
 80009a0:	2108      	movs	r1, #8
 80009a2:	0018      	movs	r0, r3
 80009a4:	f001 f8ad 	bl	8001b02 <HAL_GPIO_WritePin>
 80009a8:	4b8f      	ldr	r3, [pc, #572]	@ (8000be8 <perifericos_task+0x3cc>)
 80009aa:	681a      	ldr	r2, [r3, #0]
 80009ac:	0013      	movs	r3, r2
 80009ae:	011b      	lsls	r3, r3, #4
 80009b0:	1a9b      	subs	r3, r3, r2
 80009b2:	009b      	lsls	r3, r3, #2
 80009b4:	001a      	movs	r2, r3
 80009b6:	4b8d      	ldr	r3, [pc, #564]	@ (8000bec <perifericos_task+0x3d0>)
 80009b8:	601a      	str	r2, [r3, #0]
 80009ba:	4b77      	ldr	r3, [pc, #476]	@ (8000b98 <perifericos_task+0x37c>)
 80009bc:	2206      	movs	r2, #6
 80009be:	701a      	strb	r2, [r3, #0]
 80009c0:	f000 fca1 	bl	8001306 <perifericos_task+0xaea>
 80009c4:	4b8a      	ldr	r3, [pc, #552]	@ (8000bf0 <perifericos_task+0x3d4>)
 80009c6:	781b      	ldrb	r3, [r3, #0]
 80009c8:	b2db      	uxtb	r3, r3
 80009ca:	2b00      	cmp	r3, #0
 80009cc:	d101      	bne.n	80009d2 <perifericos_task+0x1b6>
 80009ce:	f000 fc8d 	bl	80012ec <perifericos_task+0xad0>
 80009d2:	4b87      	ldr	r3, [pc, #540]	@ (8000bf0 <perifericos_task+0x3d4>)
 80009d4:	2200      	movs	r2, #0
 80009d6:	701a      	strb	r2, [r3, #0]
 80009d8:	4b79      	ldr	r3, [pc, #484]	@ (8000bc0 <perifericos_task+0x3a4>)
 80009da:	2201      	movs	r2, #1
 80009dc:	701a      	strb	r2, [r3, #0]
 80009de:	4b77      	ldr	r3, [pc, #476]	@ (8000bbc <perifericos_task+0x3a0>)
 80009e0:	781b      	ldrb	r3, [r3, #0]
 80009e2:	b2db      	uxtb	r3, r3
 80009e4:	2b00      	cmp	r3, #0
 80009e6:	d110      	bne.n	8000a0a <perifericos_task+0x1ee>
 80009e8:	4b82      	ldr	r3, [pc, #520]	@ (8000bf4 <perifericos_task+0x3d8>)
 80009ea:	781b      	ldrb	r3, [r3, #0]
 80009ec:	b2db      	uxtb	r3, r3
 80009ee:	001a      	movs	r2, r3
 80009f0:	4b70      	ldr	r3, [pc, #448]	@ (8000bb4 <perifericos_task+0x398>)
 80009f2:	2102      	movs	r1, #2
 80009f4:	0018      	movs	r0, r3
 80009f6:	f001 f884 	bl	8001b02 <HAL_GPIO_WritePin>
 80009fa:	4b7f      	ldr	r3, [pc, #508]	@ (8000bf8 <perifericos_task+0x3dc>)
 80009fc:	2200      	movs	r2, #0
 80009fe:	701a      	strb	r2, [r3, #0]
 8000a00:	4b65      	ldr	r3, [pc, #404]	@ (8000b98 <perifericos_task+0x37c>)
 8000a02:	2202      	movs	r2, #2
 8000a04:	701a      	strb	r2, [r3, #0]
 8000a06:	f000 fc71 	bl	80012ec <perifericos_task+0xad0>
 8000a0a:	f7ff fea1 	bl	8000750 <sensor_read>
 8000a0e:	0003      	movs	r3, r0
 8000a10:	2b01      	cmp	r3, #1
 8000a12:	d116      	bne.n	8000a42 <perifericos_task+0x226>
 8000a14:	4b79      	ldr	r3, [pc, #484]	@ (8000bfc <perifericos_task+0x3e0>)
 8000a16:	781b      	ldrb	r3, [r3, #0]
 8000a18:	b2db      	uxtb	r3, r3
 8000a1a:	001a      	movs	r2, r3
 8000a1c:	4b65      	ldr	r3, [pc, #404]	@ (8000bb4 <perifericos_task+0x398>)
 8000a1e:	2101      	movs	r1, #1
 8000a20:	0018      	movs	r0, r3
 8000a22:	f001 f86e 	bl	8001b02 <HAL_GPIO_WritePin>
 8000a26:	4b76      	ldr	r3, [pc, #472]	@ (8000c00 <perifericos_task+0x3e4>)
 8000a28:	681a      	ldr	r2, [r3, #0]
 8000a2a:	0013      	movs	r3, r2
 8000a2c:	011b      	lsls	r3, r3, #4
 8000a2e:	1a9b      	subs	r3, r3, r2
 8000a30:	009b      	lsls	r3, r3, #2
 8000a32:	001a      	movs	r2, r3
 8000a34:	4b73      	ldr	r3, [pc, #460]	@ (8000c04 <perifericos_task+0x3e8>)
 8000a36:	601a      	str	r2, [r3, #0]
 8000a38:	4b57      	ldr	r3, [pc, #348]	@ (8000b98 <perifericos_task+0x37c>)
 8000a3a:	2201      	movs	r2, #1
 8000a3c:	701a      	strb	r2, [r3, #0]
 8000a3e:	f000 fc55 	bl	80012ec <perifericos_task+0xad0>
 8000a42:	4b6c      	ldr	r3, [pc, #432]	@ (8000bf4 <perifericos_task+0x3d8>)
 8000a44:	781b      	ldrb	r3, [r3, #0]
 8000a46:	b2db      	uxtb	r3, r3
 8000a48:	001a      	movs	r2, r3
 8000a4a:	4b5a      	ldr	r3, [pc, #360]	@ (8000bb4 <perifericos_task+0x398>)
 8000a4c:	2102      	movs	r1, #2
 8000a4e:	0018      	movs	r0, r3
 8000a50:	f001 f857 	bl	8001b02 <HAL_GPIO_WritePin>
 8000a54:	4b68      	ldr	r3, [pc, #416]	@ (8000bf8 <perifericos_task+0x3dc>)
 8000a56:	2200      	movs	r2, #0
 8000a58:	701a      	strb	r2, [r3, #0]
 8000a5a:	4b4f      	ldr	r3, [pc, #316]	@ (8000b98 <perifericos_task+0x37c>)
 8000a5c:	2202      	movs	r2, #2
 8000a5e:	701a      	strb	r2, [r3, #0]
 8000a60:	f000 fc44 	bl	80012ec <perifericos_task+0xad0>
 8000a64:	4b58      	ldr	r3, [pc, #352]	@ (8000bc8 <perifericos_task+0x3ac>)
 8000a66:	2200      	movs	r2, #0
 8000a68:	701a      	strb	r2, [r3, #0]
 8000a6a:	4b58      	ldr	r3, [pc, #352]	@ (8000bcc <perifericos_task+0x3b0>)
 8000a6c:	2200      	movs	r2, #0
 8000a6e:	701a      	strb	r2, [r3, #0]
 8000a70:	4b5f      	ldr	r3, [pc, #380]	@ (8000bf0 <perifericos_task+0x3d4>)
 8000a72:	781b      	ldrb	r3, [r3, #0]
 8000a74:	b2db      	uxtb	r3, r3
 8000a76:	2b00      	cmp	r3, #0
 8000a78:	d002      	beq.n	8000a80 <perifericos_task+0x264>
 8000a7a:	4b5d      	ldr	r3, [pc, #372]	@ (8000bf0 <perifericos_task+0x3d4>)
 8000a7c:	2200      	movs	r2, #0
 8000a7e:	701a      	strb	r2, [r3, #0]
 8000a80:	4b4e      	ldr	r3, [pc, #312]	@ (8000bbc <perifericos_task+0x3a0>)
 8000a82:	781b      	ldrb	r3, [r3, #0]
 8000a84:	b2db      	uxtb	r3, r3
 8000a86:	2b00      	cmp	r3, #0
 8000a88:	d104      	bne.n	8000a94 <perifericos_task+0x278>
 8000a8a:	4b43      	ldr	r3, [pc, #268]	@ (8000b98 <perifericos_task+0x37c>)
 8000a8c:	2202      	movs	r2, #2
 8000a8e:	701a      	strb	r2, [r3, #0]
 8000a90:	f000 fc39 	bl	8001306 <perifericos_task+0xaea>
 8000a94:	4b56      	ldr	r3, [pc, #344]	@ (8000bf0 <perifericos_task+0x3d4>)
 8000a96:	781b      	ldrb	r3, [r3, #0]
 8000a98:	b2db      	uxtb	r3, r3
 8000a9a:	2b00      	cmp	r3, #0
 8000a9c:	d007      	beq.n	8000aae <perifericos_task+0x292>
 8000a9e:	4b54      	ldr	r3, [pc, #336]	@ (8000bf0 <perifericos_task+0x3d4>)
 8000aa0:	2200      	movs	r2, #0
 8000aa2:	701a      	strb	r2, [r3, #0]
 8000aa4:	4b3c      	ldr	r3, [pc, #240]	@ (8000b98 <perifericos_task+0x37c>)
 8000aa6:	2203      	movs	r2, #3
 8000aa8:	701a      	strb	r2, [r3, #0]
 8000aaa:	f000 fc2c 	bl	8001306 <perifericos_task+0xaea>
 8000aae:	4b3e      	ldr	r3, [pc, #248]	@ (8000ba8 <perifericos_task+0x38c>)
 8000ab0:	781b      	ldrb	r3, [r3, #0]
 8000ab2:	2b01      	cmp	r3, #1
 8000ab4:	d116      	bne.n	8000ae4 <perifericos_task+0x2c8>
 8000ab6:	4b51      	ldr	r3, [pc, #324]	@ (8000bfc <perifericos_task+0x3e0>)
 8000ab8:	781b      	ldrb	r3, [r3, #0]
 8000aba:	b2db      	uxtb	r3, r3
 8000abc:	001a      	movs	r2, r3
 8000abe:	4b3d      	ldr	r3, [pc, #244]	@ (8000bb4 <perifericos_task+0x398>)
 8000ac0:	2101      	movs	r1, #1
 8000ac2:	0018      	movs	r0, r3
 8000ac4:	f001 f81d 	bl	8001b02 <HAL_GPIO_WritePin>
 8000ac8:	4b3b      	ldr	r3, [pc, #236]	@ (8000bb8 <perifericos_task+0x39c>)
 8000aca:	781b      	ldrb	r3, [r3, #0]
 8000acc:	b2db      	uxtb	r3, r3
 8000ace:	2b00      	cmp	r3, #0
 8000ad0:	d011      	beq.n	8000af6 <perifericos_task+0x2da>
 8000ad2:	4b38      	ldr	r3, [pc, #224]	@ (8000bb4 <perifericos_task+0x398>)
 8000ad4:	2101      	movs	r1, #1
 8000ad6:	0018      	movs	r0, r3
 8000ad8:	f001 f830 	bl	8001b3c <HAL_GPIO_TogglePin>
 8000adc:	4b36      	ldr	r3, [pc, #216]	@ (8000bb8 <perifericos_task+0x39c>)
 8000ade:	2200      	movs	r2, #0
 8000ae0:	701a      	strb	r2, [r3, #0]
 8000ae2:	e008      	b.n	8000af6 <perifericos_task+0x2da>
 8000ae4:	4b3d      	ldr	r3, [pc, #244]	@ (8000bdc <perifericos_task+0x3c0>)
 8000ae6:	781b      	ldrb	r3, [r3, #0]
 8000ae8:	b2db      	uxtb	r3, r3
 8000aea:	001a      	movs	r2, r3
 8000aec:	4b31      	ldr	r3, [pc, #196]	@ (8000bb4 <perifericos_task+0x398>)
 8000aee:	2101      	movs	r1, #1
 8000af0:	0018      	movs	r0, r3
 8000af2:	f001 f806 	bl	8001b02 <HAL_GPIO_WritePin>
 8000af6:	4b43      	ldr	r3, [pc, #268]	@ (8000c04 <perifericos_task+0x3e8>)
 8000af8:	681b      	ldr	r3, [r3, #0]
 8000afa:	2b00      	cmp	r3, #0
 8000afc:	d001      	beq.n	8000b02 <perifericos_task+0x2e6>
 8000afe:	f000 fbf7 	bl	80012f0 <perifericos_task+0xad4>
 8000b02:	4b3c      	ldr	r3, [pc, #240]	@ (8000bf4 <perifericos_task+0x3d8>)
 8000b04:	781b      	ldrb	r3, [r3, #0]
 8000b06:	b2db      	uxtb	r3, r3
 8000b08:	001a      	movs	r2, r3
 8000b0a:	4b2a      	ldr	r3, [pc, #168]	@ (8000bb4 <perifericos_task+0x398>)
 8000b0c:	2102      	movs	r1, #2
 8000b0e:	0018      	movs	r0, r3
 8000b10:	f000 fff7 	bl	8001b02 <HAL_GPIO_WritePin>
 8000b14:	4b38      	ldr	r3, [pc, #224]	@ (8000bf8 <perifericos_task+0x3dc>)
 8000b16:	2200      	movs	r2, #0
 8000b18:	701a      	strb	r2, [r3, #0]
 8000b1a:	4b1f      	ldr	r3, [pc, #124]	@ (8000b98 <perifericos_task+0x37c>)
 8000b1c:	2202      	movs	r2, #2
 8000b1e:	701a      	strb	r2, [r3, #0]
 8000b20:	f000 fbe6 	bl	80012f0 <perifericos_task+0xad4>
 8000b24:	4b28      	ldr	r3, [pc, #160]	@ (8000bc8 <perifericos_task+0x3ac>)
 8000b26:	781b      	ldrb	r3, [r3, #0]
 8000b28:	b2db      	uxtb	r3, r3
 8000b2a:	2b00      	cmp	r3, #0
 8000b2c:	d00f      	beq.n	8000b4e <perifericos_task+0x332>
 8000b2e:	4b36      	ldr	r3, [pc, #216]	@ (8000c08 <perifericos_task+0x3ec>)
 8000b30:	781b      	ldrb	r3, [r3, #0]
 8000b32:	b2db      	uxtb	r3, r3
 8000b34:	2b00      	cmp	r3, #0
 8000b36:	d00a      	beq.n	8000b4e <perifericos_task+0x332>
 8000b38:	4b23      	ldr	r3, [pc, #140]	@ (8000bc8 <perifericos_task+0x3ac>)
 8000b3a:	2200      	movs	r2, #0
 8000b3c:	701a      	strb	r2, [r3, #0]
 8000b3e:	4b33      	ldr	r3, [pc, #204]	@ (8000c0c <perifericos_task+0x3f0>)
 8000b40:	2201      	movs	r2, #1
 8000b42:	701a      	strb	r2, [r3, #0]
 8000b44:	4b14      	ldr	r3, [pc, #80]	@ (8000b98 <perifericos_task+0x37c>)
 8000b46:	2203      	movs	r2, #3
 8000b48:	701a      	strb	r2, [r3, #0]
 8000b4a:	f000 fbdc 	bl	8001306 <perifericos_task+0xaea>
 8000b4e:	4b1f      	ldr	r3, [pc, #124]	@ (8000bcc <perifericos_task+0x3b0>)
 8000b50:	781b      	ldrb	r3, [r3, #0]
 8000b52:	b2db      	uxtb	r3, r3
 8000b54:	2b00      	cmp	r3, #0
 8000b56:	d012      	beq.n	8000b7e <perifericos_task+0x362>
 8000b58:	4b1d      	ldr	r3, [pc, #116]	@ (8000bd0 <perifericos_task+0x3b4>)
 8000b5a:	781b      	ldrb	r3, [r3, #0]
 8000b5c:	b2db      	uxtb	r3, r3
 8000b5e:	2b00      	cmp	r3, #0
 8000b60:	d00d      	beq.n	8000b7e <perifericos_task+0x362>
 8000b62:	4b1a      	ldr	r3, [pc, #104]	@ (8000bcc <perifericos_task+0x3b0>)
 8000b64:	2200      	movs	r2, #0
 8000b66:	701a      	strb	r2, [r3, #0]
 8000b68:	4b1a      	ldr	r3, [pc, #104]	@ (8000bd4 <perifericos_task+0x3b8>)
 8000b6a:	2201      	movs	r2, #1
 8000b6c:	701a      	strb	r2, [r3, #0]
 8000b6e:	4b20      	ldr	r3, [pc, #128]	@ (8000bf0 <perifericos_task+0x3d4>)
 8000b70:	2200      	movs	r2, #0
 8000b72:	701a      	strb	r2, [r3, #0]
 8000b74:	4b08      	ldr	r3, [pc, #32]	@ (8000b98 <perifericos_task+0x37c>)
 8000b76:	2203      	movs	r2, #3
 8000b78:	701a      	strb	r2, [r3, #0]
 8000b7a:	f000 fbc4 	bl	8001306 <perifericos_task+0xaea>
 8000b7e:	4b1c      	ldr	r3, [pc, #112]	@ (8000bf0 <perifericos_task+0x3d4>)
 8000b80:	781b      	ldrb	r3, [r3, #0]
 8000b82:	b2db      	uxtb	r3, r3
 8000b84:	2b00      	cmp	r3, #0
 8000b86:	d043      	beq.n	8000c10 <perifericos_task+0x3f4>
 8000b88:	4b19      	ldr	r3, [pc, #100]	@ (8000bf0 <perifericos_task+0x3d4>)
 8000b8a:	2200      	movs	r2, #0
 8000b8c:	701a      	strb	r2, [r3, #0]
 8000b8e:	4b02      	ldr	r3, [pc, #8]	@ (8000b98 <perifericos_task+0x37c>)
 8000b90:	2203      	movs	r2, #3
 8000b92:	701a      	strb	r2, [r3, #0]
 8000b94:	f000 fbb7 	bl	8001306 <perifericos_task+0xaea>
 8000b98:	20000086 	.word	0x20000086
 8000b9c:	20000075 	.word	0x20000075
 8000ba0:	20000018 	.word	0x20000018
 8000ba4:	20000070 	.word	0x20000070
 8000ba8:	20000074 	.word	0x20000074
 8000bac:	20000080 	.word	0x20000080
 8000bb0:	20000006 	.word	0x20000006
 8000bb4:	50000400 	.word	0x50000400
 8000bb8:	2000007f 	.word	0x2000007f
 8000bbc:	20000007 	.word	0x20000007
 8000bc0:	2000001c 	.word	0x2000001c
 8000bc4:	08002758 	.word	0x08002758
 8000bc8:	20000081 	.word	0x20000081
 8000bcc:	20000082 	.word	0x20000082
 8000bd0:	20000005 	.word	0x20000005
 8000bd4:	20000083 	.word	0x20000083
 8000bd8:	2000007d 	.word	0x2000007d
 8000bdc:	20000077 	.word	0x20000077
 8000be0:	20000079 	.word	0x20000079
 8000be4:	2000007a 	.word	0x2000007a
 8000be8:	20000008 	.word	0x20000008
 8000bec:	20000068 	.word	0x20000068
 8000bf0:	2000007e 	.word	0x2000007e
 8000bf4:	2000007c 	.word	0x2000007c
 8000bf8:	20000085 	.word	0x20000085
 8000bfc:	20000076 	.word	0x20000076
 8000c00:	20000050 	.word	0x20000050
 8000c04:	20000060 	.word	0x20000060
 8000c08:	20000056 	.word	0x20000056
 8000c0c:	20000084 	.word	0x20000084
 8000c10:	4bd3      	ldr	r3, [pc, #844]	@ (8000f60 <perifericos_task+0x744>)
 8000c12:	781b      	ldrb	r3, [r3, #0]
 8000c14:	b2db      	uxtb	r3, r3
 8000c16:	001a      	movs	r2, r3
 8000c18:	4bd2      	ldr	r3, [pc, #840]	@ (8000f64 <perifericos_task+0x748>)
 8000c1a:	2102      	movs	r1, #2
 8000c1c:	0018      	movs	r0, r3
 8000c1e:	f000 ff70 	bl	8001b02 <HAL_GPIO_WritePin>
 8000c22:	4bd1      	ldr	r3, [pc, #836]	@ (8000f68 <perifericos_task+0x74c>)
 8000c24:	781b      	ldrb	r3, [r3, #0]
 8000c26:	b2db      	uxtb	r3, r3
 8000c28:	2b00      	cmp	r3, #0
 8000c2a:	d109      	bne.n	8000c40 <perifericos_task+0x424>
 8000c2c:	4bcf      	ldr	r3, [pc, #828]	@ (8000f6c <perifericos_task+0x750>)
 8000c2e:	781b      	ldrb	r3, [r3, #0]
 8000c30:	b2db      	uxtb	r3, r3
 8000c32:	001a      	movs	r2, r3
 8000c34:	4bcb      	ldr	r3, [pc, #812]	@ (8000f64 <perifericos_task+0x748>)
 8000c36:	2101      	movs	r1, #1
 8000c38:	0018      	movs	r0, r3
 8000c3a:	f000 ff62 	bl	8001b02 <HAL_GPIO_WritePin>
 8000c3e:	e362      	b.n	8001306 <perifericos_task+0xaea>
 8000c40:	4bcb      	ldr	r3, [pc, #812]	@ (8000f70 <perifericos_task+0x754>)
 8000c42:	781b      	ldrb	r3, [r3, #0]
 8000c44:	b2db      	uxtb	r3, r3
 8000c46:	2201      	movs	r2, #1
 8000c48:	4053      	eors	r3, r2
 8000c4a:	b2db      	uxtb	r3, r3
 8000c4c:	2b00      	cmp	r3, #0
 8000c4e:	d009      	beq.n	8000c64 <perifericos_task+0x448>
 8000c50:	4bc6      	ldr	r3, [pc, #792]	@ (8000f6c <perifericos_task+0x750>)
 8000c52:	781b      	ldrb	r3, [r3, #0]
 8000c54:	b2db      	uxtb	r3, r3
 8000c56:	001a      	movs	r2, r3
 8000c58:	4bc2      	ldr	r3, [pc, #776]	@ (8000f64 <perifericos_task+0x748>)
 8000c5a:	2101      	movs	r1, #1
 8000c5c:	0018      	movs	r0, r3
 8000c5e:	f000 ff50 	bl	8001b02 <HAL_GPIO_WritePin>
 8000c62:	e350      	b.n	8001306 <perifericos_task+0xaea>
 8000c64:	4bc3      	ldr	r3, [pc, #780]	@ (8000f74 <perifericos_task+0x758>)
 8000c66:	781b      	ldrb	r3, [r3, #0]
 8000c68:	2b01      	cmp	r3, #1
 8000c6a:	d109      	bne.n	8000c80 <perifericos_task+0x464>
 8000c6c:	4bc2      	ldr	r3, [pc, #776]	@ (8000f78 <perifericos_task+0x75c>)
 8000c6e:	781b      	ldrb	r3, [r3, #0]
 8000c70:	b2db      	uxtb	r3, r3
 8000c72:	001a      	movs	r2, r3
 8000c74:	4bbb      	ldr	r3, [pc, #748]	@ (8000f64 <perifericos_task+0x748>)
 8000c76:	2101      	movs	r1, #1
 8000c78:	0018      	movs	r0, r3
 8000c7a:	f000 ff42 	bl	8001b02 <HAL_GPIO_WritePin>
 8000c7e:	e342      	b.n	8001306 <perifericos_task+0xaea>
 8000c80:	4bba      	ldr	r3, [pc, #744]	@ (8000f6c <perifericos_task+0x750>)
 8000c82:	781b      	ldrb	r3, [r3, #0]
 8000c84:	b2db      	uxtb	r3, r3
 8000c86:	001a      	movs	r2, r3
 8000c88:	4bb6      	ldr	r3, [pc, #728]	@ (8000f64 <perifericos_task+0x748>)
 8000c8a:	2101      	movs	r1, #1
 8000c8c:	0018      	movs	r0, r3
 8000c8e:	f000 ff38 	bl	8001b02 <HAL_GPIO_WritePin>
 8000c92:	e338      	b.n	8001306 <perifericos_task+0xaea>
 8000c94:	4bb9      	ldr	r3, [pc, #740]	@ (8000f7c <perifericos_task+0x760>)
 8000c96:	2200      	movs	r2, #0
 8000c98:	701a      	strb	r2, [r3, #0]
 8000c9a:	4bb9      	ldr	r3, [pc, #740]	@ (8000f80 <perifericos_task+0x764>)
 8000c9c:	2200      	movs	r2, #0
 8000c9e:	701a      	strb	r2, [r3, #0]
 8000ca0:	4bb8      	ldr	r3, [pc, #736]	@ (8000f84 <perifericos_task+0x768>)
 8000ca2:	781b      	ldrb	r3, [r3, #0]
 8000ca4:	b2db      	uxtb	r3, r3
 8000ca6:	2b00      	cmp	r3, #0
 8000ca8:	d001      	beq.n	8000cae <perifericos_task+0x492>
 8000caa:	4bb6      	ldr	r3, [pc, #728]	@ (8000f84 <perifericos_task+0x768>)
 8000cac:	781b      	ldrb	r3, [r3, #0]
 8000cae:	4baf      	ldr	r3, [pc, #700]	@ (8000f6c <perifericos_task+0x750>)
 8000cb0:	781b      	ldrb	r3, [r3, #0]
 8000cb2:	b2db      	uxtb	r3, r3
 8000cb4:	001a      	movs	r2, r3
 8000cb6:	4bab      	ldr	r3, [pc, #684]	@ (8000f64 <perifericos_task+0x748>)
 8000cb8:	2101      	movs	r1, #1
 8000cba:	0018      	movs	r0, r3
 8000cbc:	f000 ff21 	bl	8001b02 <HAL_GPIO_WritePin>
 8000cc0:	4bb1      	ldr	r3, [pc, #708]	@ (8000f88 <perifericos_task+0x76c>)
 8000cc2:	781b      	ldrb	r3, [r3, #0]
 8000cc4:	b2db      	uxtb	r3, r3
 8000cc6:	001a      	movs	r2, r3
 8000cc8:	4ba6      	ldr	r3, [pc, #664]	@ (8000f64 <perifericos_task+0x748>)
 8000cca:	2104      	movs	r1, #4
 8000ccc:	0018      	movs	r0, r3
 8000cce:	f000 ff18 	bl	8001b02 <HAL_GPIO_WritePin>
 8000cd2:	4ba5      	ldr	r3, [pc, #660]	@ (8000f68 <perifericos_task+0x74c>)
 8000cd4:	781b      	ldrb	r3, [r3, #0]
 8000cd6:	b2db      	uxtb	r3, r3
 8000cd8:	2b00      	cmp	r3, #0
 8000cda:	d10f      	bne.n	8000cfc <perifericos_task+0x4e0>
 8000cdc:	4bab      	ldr	r3, [pc, #684]	@ (8000f8c <perifericos_task+0x770>)
 8000cde:	781b      	ldrb	r3, [r3, #0]
 8000ce0:	b2db      	uxtb	r3, r3
 8000ce2:	001a      	movs	r2, r3
 8000ce4:	4b9f      	ldr	r3, [pc, #636]	@ (8000f64 <perifericos_task+0x748>)
 8000ce6:	2102      	movs	r1, #2
 8000ce8:	0018      	movs	r0, r3
 8000cea:	f000 ff0a 	bl	8001b02 <HAL_GPIO_WritePin>
 8000cee:	4ba8      	ldr	r3, [pc, #672]	@ (8000f90 <perifericos_task+0x774>)
 8000cf0:	2200      	movs	r2, #0
 8000cf2:	701a      	strb	r2, [r3, #0]
 8000cf4:	4ba7      	ldr	r3, [pc, #668]	@ (8000f94 <perifericos_task+0x778>)
 8000cf6:	2205      	movs	r2, #5
 8000cf8:	701a      	strb	r2, [r3, #0]
 8000cfa:	e304      	b.n	8001306 <perifericos_task+0xaea>
 8000cfc:	4b9c      	ldr	r3, [pc, #624]	@ (8000f70 <perifericos_task+0x754>)
 8000cfe:	781b      	ldrb	r3, [r3, #0]
 8000d00:	b2db      	uxtb	r3, r3
 8000d02:	2201      	movs	r2, #1
 8000d04:	4053      	eors	r3, r2
 8000d06:	b2db      	uxtb	r3, r3
 8000d08:	2b00      	cmp	r3, #0
 8000d0a:	d00f      	beq.n	8000d2c <perifericos_task+0x510>
 8000d0c:	4b9f      	ldr	r3, [pc, #636]	@ (8000f8c <perifericos_task+0x770>)
 8000d0e:	781b      	ldrb	r3, [r3, #0]
 8000d10:	b2db      	uxtb	r3, r3
 8000d12:	001a      	movs	r2, r3
 8000d14:	4b93      	ldr	r3, [pc, #588]	@ (8000f64 <perifericos_task+0x748>)
 8000d16:	2102      	movs	r1, #2
 8000d18:	0018      	movs	r0, r3
 8000d1a:	f000 fef2 	bl	8001b02 <HAL_GPIO_WritePin>
 8000d1e:	4b9c      	ldr	r3, [pc, #624]	@ (8000f90 <perifericos_task+0x774>)
 8000d20:	2200      	movs	r2, #0
 8000d22:	701a      	strb	r2, [r3, #0]
 8000d24:	4b9b      	ldr	r3, [pc, #620]	@ (8000f94 <perifericos_task+0x778>)
 8000d26:	2205      	movs	r2, #5
 8000d28:	701a      	strb	r2, [r3, #0]
 8000d2a:	e2ec      	b.n	8001306 <perifericos_task+0xaea>
 8000d2c:	4b91      	ldr	r3, [pc, #580]	@ (8000f74 <perifericos_task+0x758>)
 8000d2e:	781b      	ldrb	r3, [r3, #0]
 8000d30:	2b00      	cmp	r3, #0
 8000d32:	d10f      	bne.n	8000d54 <perifericos_task+0x538>
 8000d34:	4b95      	ldr	r3, [pc, #596]	@ (8000f8c <perifericos_task+0x770>)
 8000d36:	781b      	ldrb	r3, [r3, #0]
 8000d38:	b2db      	uxtb	r3, r3
 8000d3a:	001a      	movs	r2, r3
 8000d3c:	4b89      	ldr	r3, [pc, #548]	@ (8000f64 <perifericos_task+0x748>)
 8000d3e:	2102      	movs	r1, #2
 8000d40:	0018      	movs	r0, r3
 8000d42:	f000 fede 	bl	8001b02 <HAL_GPIO_WritePin>
 8000d46:	4b92      	ldr	r3, [pc, #584]	@ (8000f90 <perifericos_task+0x774>)
 8000d48:	2200      	movs	r2, #0
 8000d4a:	701a      	strb	r2, [r3, #0]
 8000d4c:	4b91      	ldr	r3, [pc, #580]	@ (8000f94 <perifericos_task+0x778>)
 8000d4e:	2205      	movs	r2, #5
 8000d50:	701a      	strb	r2, [r3, #0]
 8000d52:	e2d8      	b.n	8001306 <perifericos_task+0xaea>
 8000d54:	4b90      	ldr	r3, [pc, #576]	@ (8000f98 <perifericos_task+0x77c>)
 8000d56:	681a      	ldr	r2, [r3, #0]
 8000d58:	0013      	movs	r3, r2
 8000d5a:	011b      	lsls	r3, r3, #4
 8000d5c:	1a9b      	subs	r3, r3, r2
 8000d5e:	009b      	lsls	r3, r3, #2
 8000d60:	001a      	movs	r2, r3
 8000d62:	4b8e      	ldr	r3, [pc, #568]	@ (8000f9c <perifericos_task+0x780>)
 8000d64:	601a      	str	r2, [r3, #0]
 8000d66:	4b8e      	ldr	r3, [pc, #568]	@ (8000fa0 <perifericos_task+0x784>)
 8000d68:	781b      	ldrb	r3, [r3, #0]
 8000d6a:	b2db      	uxtb	r3, r3
 8000d6c:	2b00      	cmp	r3, #0
 8000d6e:	d104      	bne.n	8000d7a <perifericos_task+0x55e>
 8000d70:	4b8c      	ldr	r3, [pc, #560]	@ (8000fa4 <perifericos_task+0x788>)
 8000d72:	681a      	ldr	r2, [r3, #0]
 8000d74:	4b8c      	ldr	r3, [pc, #560]	@ (8000fa8 <perifericos_task+0x78c>)
 8000d76:	601a      	str	r2, [r3, #0]
 8000d78:	e005      	b.n	8000d86 <perifericos_task+0x56a>
 8000d7a:	4b89      	ldr	r3, [pc, #548]	@ (8000fa0 <perifericos_task+0x784>)
 8000d7c:	781b      	ldrb	r3, [r3, #0]
 8000d7e:	b2db      	uxtb	r3, r3
 8000d80:	001a      	movs	r2, r3
 8000d82:	4b89      	ldr	r3, [pc, #548]	@ (8000fa8 <perifericos_task+0x78c>)
 8000d84:	601a      	str	r2, [r3, #0]
 8000d86:	4b89      	ldr	r3, [pc, #548]	@ (8000fac <perifericos_task+0x790>)
 8000d88:	781b      	ldrb	r3, [r3, #0]
 8000d8a:	b2db      	uxtb	r3, r3
 8000d8c:	2b01      	cmp	r3, #1
 8000d8e:	d112      	bne.n	8000db6 <perifericos_task+0x59a>
 8000d90:	4b87      	ldr	r3, [pc, #540]	@ (8000fb0 <perifericos_task+0x794>)
 8000d92:	2201      	movs	r2, #1
 8000d94:	701a      	strb	r2, [r3, #0]
 8000d96:	4b7d      	ldr	r3, [pc, #500]	@ (8000f8c <perifericos_task+0x770>)
 8000d98:	781b      	ldrb	r3, [r3, #0]
 8000d9a:	b2db      	uxtb	r3, r3
 8000d9c:	001a      	movs	r2, r3
 8000d9e:	4b71      	ldr	r3, [pc, #452]	@ (8000f64 <perifericos_task+0x748>)
 8000da0:	2102      	movs	r1, #2
 8000da2:	0018      	movs	r0, r3
 8000da4:	f000 fead 	bl	8001b02 <HAL_GPIO_WritePin>
 8000da8:	4b79      	ldr	r3, [pc, #484]	@ (8000f90 <perifericos_task+0x774>)
 8000daa:	2200      	movs	r2, #0
 8000dac:	701a      	strb	r2, [r3, #0]
 8000dae:	4b79      	ldr	r3, [pc, #484]	@ (8000f94 <perifericos_task+0x778>)
 8000db0:	220a      	movs	r2, #10
 8000db2:	701a      	strb	r2, [r3, #0]
 8000db4:	e2a7      	b.n	8001306 <perifericos_task+0xaea>
 8000db6:	4b7f      	ldr	r3, [pc, #508]	@ (8000fb4 <perifericos_task+0x798>)
 8000db8:	781b      	ldrb	r3, [r3, #0]
 8000dba:	b2db      	uxtb	r3, r3
 8000dbc:	1e5a      	subs	r2, r3, #1
 8000dbe:	4193      	sbcs	r3, r2
 8000dc0:	b2da      	uxtb	r2, r3
 8000dc2:	4b7d      	ldr	r3, [pc, #500]	@ (8000fb8 <perifericos_task+0x79c>)
 8000dc4:	701a      	strb	r2, [r3, #0]
 8000dc6:	4b73      	ldr	r3, [pc, #460]	@ (8000f94 <perifericos_task+0x778>)
 8000dc8:	2204      	movs	r2, #4
 8000dca:	701a      	strb	r2, [r3, #0]
 8000dcc:	e29b      	b.n	8001306 <perifericos_task+0xaea>
 8000dce:	4b6f      	ldr	r3, [pc, #444]	@ (8000f8c <perifericos_task+0x770>)
 8000dd0:	781b      	ldrb	r3, [r3, #0]
 8000dd2:	b2db      	uxtb	r3, r3
 8000dd4:	001a      	movs	r2, r3
 8000dd6:	4b63      	ldr	r3, [pc, #396]	@ (8000f64 <perifericos_task+0x748>)
 8000dd8:	2102      	movs	r1, #2
 8000dda:	0018      	movs	r0, r3
 8000ddc:	f000 fe91 	bl	8001b02 <HAL_GPIO_WritePin>
 8000de0:	4b6b      	ldr	r3, [pc, #428]	@ (8000f90 <perifericos_task+0x774>)
 8000de2:	781b      	ldrb	r3, [r3, #0]
 8000de4:	b2db      	uxtb	r3, r3
 8000de6:	2201      	movs	r2, #1
 8000de8:	4053      	eors	r3, r2
 8000dea:	b2db      	uxtb	r3, r3
 8000dec:	2b00      	cmp	r3, #0
 8000dee:	d000      	beq.n	8000df2 <perifericos_task+0x5d6>
 8000df0:	e280      	b.n	80012f4 <perifericos_task+0xad8>
 8000df2:	4b70      	ldr	r3, [pc, #448]	@ (8000fb4 <perifericos_task+0x798>)
 8000df4:	781b      	ldrb	r3, [r3, #0]
 8000df6:	b2db      	uxtb	r3, r3
 8000df8:	425a      	negs	r2, r3
 8000dfa:	4153      	adcs	r3, r2
 8000dfc:	b2da      	uxtb	r2, r3
 8000dfe:	4b6e      	ldr	r3, [pc, #440]	@ (8000fb8 <perifericos_task+0x79c>)
 8000e00:	701a      	strb	r2, [r3, #0]
 8000e02:	4b57      	ldr	r3, [pc, #348]	@ (8000f60 <perifericos_task+0x744>)
 8000e04:	781b      	ldrb	r3, [r3, #0]
 8000e06:	b2db      	uxtb	r3, r3
 8000e08:	001a      	movs	r2, r3
 8000e0a:	4b56      	ldr	r3, [pc, #344]	@ (8000f64 <perifericos_task+0x748>)
 8000e0c:	2102      	movs	r1, #2
 8000e0e:	0018      	movs	r0, r3
 8000e10:	f000 fe77 	bl	8001b02 <HAL_GPIO_WritePin>
 8000e14:	4b5f      	ldr	r3, [pc, #380]	@ (8000f94 <perifericos_task+0x778>)
 8000e16:	220b      	movs	r2, #11
 8000e18:	701a      	strb	r2, [r3, #0]
 8000e1a:	e274      	b.n	8001306 <perifericos_task+0xaea>
 8000e1c:	4b5f      	ldr	r3, [pc, #380]	@ (8000f9c <perifericos_task+0x780>)
 8000e1e:	681b      	ldr	r3, [r3, #0]
 8000e20:	2b00      	cmp	r3, #0
 8000e22:	d009      	beq.n	8000e38 <perifericos_task+0x61c>
 8000e24:	4b4e      	ldr	r3, [pc, #312]	@ (8000f60 <perifericos_task+0x744>)
 8000e26:	781b      	ldrb	r3, [r3, #0]
 8000e28:	b2db      	uxtb	r3, r3
 8000e2a:	001a      	movs	r2, r3
 8000e2c:	4b4d      	ldr	r3, [pc, #308]	@ (8000f64 <perifericos_task+0x748>)
 8000e2e:	2102      	movs	r1, #2
 8000e30:	0018      	movs	r0, r3
 8000e32:	f000 fe66 	bl	8001b02 <HAL_GPIO_WritePin>
 8000e36:	e266      	b.n	8001306 <perifericos_task+0xaea>
 8000e38:	4b54      	ldr	r3, [pc, #336]	@ (8000f8c <perifericos_task+0x770>)
 8000e3a:	781b      	ldrb	r3, [r3, #0]
 8000e3c:	b2db      	uxtb	r3, r3
 8000e3e:	001a      	movs	r2, r3
 8000e40:	4b48      	ldr	r3, [pc, #288]	@ (8000f64 <perifericos_task+0x748>)
 8000e42:	2102      	movs	r1, #2
 8000e44:	0018      	movs	r0, r3
 8000e46:	f000 fe5c 	bl	8001b02 <HAL_GPIO_WritePin>
 8000e4a:	4b51      	ldr	r3, [pc, #324]	@ (8000f90 <perifericos_task+0x774>)
 8000e4c:	2200      	movs	r2, #0
 8000e4e:	701a      	strb	r2, [r3, #0]
 8000e50:	4b57      	ldr	r3, [pc, #348]	@ (8000fb0 <perifericos_task+0x794>)
 8000e52:	2200      	movs	r2, #0
 8000e54:	701a      	strb	r2, [r3, #0]
 8000e56:	4b4f      	ldr	r3, [pc, #316]	@ (8000f94 <perifericos_task+0x778>)
 8000e58:	2205      	movs	r2, #5
 8000e5a:	701a      	strb	r2, [r3, #0]
 8000e5c:	e253      	b.n	8001306 <perifericos_task+0xaea>
 8000e5e:	4b47      	ldr	r3, [pc, #284]	@ (8000f7c <perifericos_task+0x760>)
 8000e60:	2200      	movs	r2, #0
 8000e62:	701a      	strb	r2, [r3, #0]
 8000e64:	4b46      	ldr	r3, [pc, #280]	@ (8000f80 <perifericos_task+0x764>)
 8000e66:	2200      	movs	r2, #0
 8000e68:	701a      	strb	r2, [r3, #0]
 8000e6a:	4b46      	ldr	r3, [pc, #280]	@ (8000f84 <perifericos_task+0x768>)
 8000e6c:	781b      	ldrb	r3, [r3, #0]
 8000e6e:	b2db      	uxtb	r3, r3
 8000e70:	2b00      	cmp	r3, #0
 8000e72:	d002      	beq.n	8000e7a <perifericos_task+0x65e>
 8000e74:	4b43      	ldr	r3, [pc, #268]	@ (8000f84 <perifericos_task+0x768>)
 8000e76:	2200      	movs	r2, #0
 8000e78:	701a      	strb	r2, [r3, #0]
 8000e7a:	4b3c      	ldr	r3, [pc, #240]	@ (8000f6c <perifericos_task+0x750>)
 8000e7c:	781b      	ldrb	r3, [r3, #0]
 8000e7e:	b2db      	uxtb	r3, r3
 8000e80:	001a      	movs	r2, r3
 8000e82:	4b38      	ldr	r3, [pc, #224]	@ (8000f64 <perifericos_task+0x748>)
 8000e84:	2101      	movs	r1, #1
 8000e86:	0018      	movs	r0, r3
 8000e88:	f000 fe3b 	bl	8001b02 <HAL_GPIO_WritePin>
 8000e8c:	4b43      	ldr	r3, [pc, #268]	@ (8000f9c <perifericos_task+0x780>)
 8000e8e:	681b      	ldr	r3, [r3, #0]
 8000e90:	2b00      	cmp	r3, #0
 8000e92:	d009      	beq.n	8000ea8 <perifericos_task+0x68c>
 8000e94:	4b32      	ldr	r3, [pc, #200]	@ (8000f60 <perifericos_task+0x744>)
 8000e96:	781b      	ldrb	r3, [r3, #0]
 8000e98:	b2db      	uxtb	r3, r3
 8000e9a:	001a      	movs	r2, r3
 8000e9c:	4b31      	ldr	r3, [pc, #196]	@ (8000f64 <perifericos_task+0x748>)
 8000e9e:	2102      	movs	r1, #2
 8000ea0:	0018      	movs	r0, r3
 8000ea2:	f000 fe2e 	bl	8001b02 <HAL_GPIO_WritePin>
 8000ea6:	e22e      	b.n	8001306 <perifericos_task+0xaea>
 8000ea8:	4b38      	ldr	r3, [pc, #224]	@ (8000f8c <perifericos_task+0x770>)
 8000eaa:	781b      	ldrb	r3, [r3, #0]
 8000eac:	b2db      	uxtb	r3, r3
 8000eae:	001a      	movs	r2, r3
 8000eb0:	4b2c      	ldr	r3, [pc, #176]	@ (8000f64 <perifericos_task+0x748>)
 8000eb2:	2102      	movs	r1, #2
 8000eb4:	0018      	movs	r0, r3
 8000eb6:	f000 fe24 	bl	8001b02 <HAL_GPIO_WritePin>
 8000eba:	4b35      	ldr	r3, [pc, #212]	@ (8000f90 <perifericos_task+0x774>)
 8000ebc:	2200      	movs	r2, #0
 8000ebe:	701a      	strb	r2, [r3, #0]
 8000ec0:	4b34      	ldr	r3, [pc, #208]	@ (8000f94 <perifericos_task+0x778>)
 8000ec2:	2205      	movs	r2, #5
 8000ec4:	701a      	strb	r2, [r3, #0]
 8000ec6:	e21e      	b.n	8001306 <perifericos_task+0xaea>
 8000ec8:	4b2e      	ldr	r3, [pc, #184]	@ (8000f84 <perifericos_task+0x768>)
 8000eca:	781b      	ldrb	r3, [r3, #0]
 8000ecc:	b2db      	uxtb	r3, r3
 8000ece:	2b00      	cmp	r3, #0
 8000ed0:	d002      	beq.n	8000ed8 <perifericos_task+0x6bc>
 8000ed2:	4b2c      	ldr	r3, [pc, #176]	@ (8000f84 <perifericos_task+0x768>)
 8000ed4:	2200      	movs	r2, #0
 8000ed6:	701a      	strb	r2, [r3, #0]
 8000ed8:	4b29      	ldr	r3, [pc, #164]	@ (8000f80 <perifericos_task+0x764>)
 8000eda:	781b      	ldrb	r3, [r3, #0]
 8000edc:	b2db      	uxtb	r3, r3
 8000ede:	2b00      	cmp	r3, #0
 8000ee0:	d002      	beq.n	8000ee8 <perifericos_task+0x6cc>
 8000ee2:	4b27      	ldr	r3, [pc, #156]	@ (8000f80 <perifericos_task+0x764>)
 8000ee4:	2200      	movs	r2, #0
 8000ee6:	701a      	strb	r2, [r3, #0]
 8000ee8:	4b34      	ldr	r3, [pc, #208]	@ (8000fbc <perifericos_task+0x7a0>)
 8000eea:	781b      	ldrb	r3, [r3, #0]
 8000eec:	b2db      	uxtb	r3, r3
 8000eee:	2b00      	cmp	r3, #0
 8000ef0:	d002      	beq.n	8000ef8 <perifericos_task+0x6dc>
 8000ef2:	4b32      	ldr	r3, [pc, #200]	@ (8000fbc <perifericos_task+0x7a0>)
 8000ef4:	2200      	movs	r2, #0
 8000ef6:	701a      	strb	r2, [r3, #0]
 8000ef8:	4b31      	ldr	r3, [pc, #196]	@ (8000fc0 <perifericos_task+0x7a4>)
 8000efa:	781b      	ldrb	r3, [r3, #0]
 8000efc:	b2db      	uxtb	r3, r3
 8000efe:	2b00      	cmp	r3, #0
 8000f00:	d002      	beq.n	8000f08 <perifericos_task+0x6ec>
 8000f02:	4b2f      	ldr	r3, [pc, #188]	@ (8000fc0 <perifericos_task+0x7a4>)
 8000f04:	2200      	movs	r2, #0
 8000f06:	701a      	strb	r2, [r3, #0]
 8000f08:	4b1f      	ldr	r3, [pc, #124]	@ (8000f88 <perifericos_task+0x76c>)
 8000f0a:	781b      	ldrb	r3, [r3, #0]
 8000f0c:	b2db      	uxtb	r3, r3
 8000f0e:	001a      	movs	r2, r3
 8000f10:	4b14      	ldr	r3, [pc, #80]	@ (8000f64 <perifericos_task+0x748>)
 8000f12:	2104      	movs	r1, #4
 8000f14:	0018      	movs	r0, r3
 8000f16:	f000 fdf4 	bl	8001b02 <HAL_GPIO_WritePin>
 8000f1a:	4b2a      	ldr	r3, [pc, #168]	@ (8000fc4 <perifericos_task+0x7a8>)
 8000f1c:	781b      	ldrb	r3, [r3, #0]
 8000f1e:	b2db      	uxtb	r3, r3
 8000f20:	2b00      	cmp	r3, #0
 8000f22:	d059      	beq.n	8000fd8 <perifericos_task+0x7bc>
 8000f24:	4b28      	ldr	r3, [pc, #160]	@ (8000fc8 <perifericos_task+0x7ac>)
 8000f26:	781b      	ldrb	r3, [r3, #0]
 8000f28:	b2db      	uxtb	r3, r3
 8000f2a:	2b00      	cmp	r3, #0
 8000f2c:	d054      	beq.n	8000fd8 <perifericos_task+0x7bc>
 8000f2e:	4b25      	ldr	r3, [pc, #148]	@ (8000fc4 <perifericos_task+0x7a8>)
 8000f30:	2200      	movs	r2, #0
 8000f32:	701a      	strb	r2, [r3, #0]
 8000f34:	4b25      	ldr	r3, [pc, #148]	@ (8000fcc <perifericos_task+0x7b0>)
 8000f36:	781b      	ldrb	r3, [r3, #0]
 8000f38:	b2db      	uxtb	r3, r3
 8000f3a:	001a      	movs	r2, r3
 8000f3c:	4b09      	ldr	r3, [pc, #36]	@ (8000f64 <perifericos_task+0x748>)
 8000f3e:	2108      	movs	r1, #8
 8000f40:	0018      	movs	r0, r3
 8000f42:	f000 fdde 	bl	8001b02 <HAL_GPIO_WritePin>
 8000f46:	4b22      	ldr	r3, [pc, #136]	@ (8000fd0 <perifericos_task+0x7b4>)
 8000f48:	681a      	ldr	r2, [r3, #0]
 8000f4a:	0013      	movs	r3, r2
 8000f4c:	011b      	lsls	r3, r3, #4
 8000f4e:	1a9b      	subs	r3, r3, r2
 8000f50:	009b      	lsls	r3, r3, #2
 8000f52:	001a      	movs	r2, r3
 8000f54:	4b1f      	ldr	r3, [pc, #124]	@ (8000fd4 <perifericos_task+0x7b8>)
 8000f56:	601a      	str	r2, [r3, #0]
 8000f58:	4b0e      	ldr	r3, [pc, #56]	@ (8000f94 <perifericos_task+0x778>)
 8000f5a:	2206      	movs	r2, #6
 8000f5c:	701a      	strb	r2, [r3, #0]
 8000f5e:	e072      	b.n	8001046 <perifericos_task+0x82a>
 8000f60:	2000007c 	.word	0x2000007c
 8000f64:	50000400 	.word	0x50000400
 8000f68:	20000007 	.word	0x20000007
 8000f6c:	20000077 	.word	0x20000077
 8000f70:	2000001c 	.word	0x2000001c
 8000f74:	20000074 	.word	0x20000074
 8000f78:	20000076 	.word	0x20000076
 8000f7c:	20000081 	.word	0x20000081
 8000f80:	20000082 	.word	0x20000082
 8000f84:	2000007e 	.word	0x2000007e
 8000f88:	20000079 	.word	0x20000079
 8000f8c:	2000007d 	.word	0x2000007d
 8000f90:	20000085 	.word	0x20000085
 8000f94:	20000086 	.word	0x20000086
 8000f98:	20000000 	.word	0x20000000
 8000f9c:	20000064 	.word	0x20000064
 8000fa0:	20000004 	.word	0x20000004
 8000fa4:	20000014 	.word	0x20000014
 8000fa8:	20000058 	.word	0x20000058
 8000fac:	20000054 	.word	0x20000054
 8000fb0:	2000005d 	.word	0x2000005d
 8000fb4:	20000055 	.word	0x20000055
 8000fb8:	2000005c 	.word	0x2000005c
 8000fbc:	2000007f 	.word	0x2000007f
 8000fc0:	20000080 	.word	0x20000080
 8000fc4:	20000083 	.word	0x20000083
 8000fc8:	20000005 	.word	0x20000005
 8000fcc:	2000007a 	.word	0x2000007a
 8000fd0:	20000008 	.word	0x20000008
 8000fd4:	20000068 	.word	0x20000068
 8000fd8:	4bcd      	ldr	r3, [pc, #820]	@ (8001310 <perifericos_task+0xaf4>)
 8000fda:	781b      	ldrb	r3, [r3, #0]
 8000fdc:	b2db      	uxtb	r3, r3
 8000fde:	2b00      	cmp	r3, #0
 8000fe0:	d025      	beq.n	800102e <perifericos_task+0x812>
 8000fe2:	4bcc      	ldr	r3, [pc, #816]	@ (8001314 <perifericos_task+0xaf8>)
 8000fe4:	781b      	ldrb	r3, [r3, #0]
 8000fe6:	b2db      	uxtb	r3, r3
 8000fe8:	2b00      	cmp	r3, #0
 8000fea:	d020      	beq.n	800102e <perifericos_task+0x812>
 8000fec:	4bca      	ldr	r3, [pc, #808]	@ (8001318 <perifericos_task+0xafc>)
 8000fee:	781b      	ldrb	r3, [r3, #0]
 8000ff0:	b2db      	uxtb	r3, r3
 8000ff2:	2b00      	cmp	r3, #0
 8000ff4:	d027      	beq.n	8001046 <perifericos_task+0x82a>
 8000ff6:	4bc6      	ldr	r3, [pc, #792]	@ (8001310 <perifericos_task+0xaf4>)
 8000ff8:	2200      	movs	r2, #0
 8000ffa:	701a      	strb	r2, [r3, #0]
 8000ffc:	4bc7      	ldr	r3, [pc, #796]	@ (800131c <perifericos_task+0xb00>)
 8000ffe:	781b      	ldrb	r3, [r3, #0]
 8001000:	b2db      	uxtb	r3, r3
 8001002:	001a      	movs	r2, r3
 8001004:	4bc6      	ldr	r3, [pc, #792]	@ (8001320 <perifericos_task+0xb04>)
 8001006:	2102      	movs	r1, #2
 8001008:	0018      	movs	r0, r3
 800100a:	f000 fd7a 	bl	8001b02 <HAL_GPIO_WritePin>
 800100e:	4bc5      	ldr	r3, [pc, #788]	@ (8001324 <perifericos_task+0xb08>)
 8001010:	781b      	ldrb	r3, [r3, #0]
 8001012:	b2db      	uxtb	r3, r3
 8001014:	001a      	movs	r2, r3
 8001016:	4bc2      	ldr	r3, [pc, #776]	@ (8001320 <perifericos_task+0xb04>)
 8001018:	2101      	movs	r1, #1
 800101a:	0018      	movs	r0, r3
 800101c:	f000 fd71 	bl	8001b02 <HAL_GPIO_WritePin>
 8001020:	4bbd      	ldr	r3, [pc, #756]	@ (8001318 <perifericos_task+0xafc>)
 8001022:	2200      	movs	r2, #0
 8001024:	701a      	strb	r2, [r3, #0]
 8001026:	4bc0      	ldr	r3, [pc, #768]	@ (8001328 <perifericos_task+0xb0c>)
 8001028:	2208      	movs	r2, #8
 800102a:	701a      	strb	r2, [r3, #0]
 800102c:	e00b      	b.n	8001046 <perifericos_task+0x82a>
 800102e:	4bbe      	ldr	r3, [pc, #760]	@ (8001328 <perifericos_task+0xb0c>)
 8001030:	2200      	movs	r2, #0
 8001032:	701a      	strb	r2, [r3, #0]
 8001034:	4bbd      	ldr	r3, [pc, #756]	@ (800132c <perifericos_task+0xb10>)
 8001036:	781b      	ldrb	r3, [r3, #0]
 8001038:	b2db      	uxtb	r3, r3
 800103a:	1e5a      	subs	r2, r3, #1
 800103c:	4193      	sbcs	r3, r2
 800103e:	b2da      	uxtb	r2, r3
 8001040:	4bbb      	ldr	r3, [pc, #748]	@ (8001330 <perifericos_task+0xb14>)
 8001042:	701a      	strb	r2, [r3, #0]
 8001044:	e15f      	b.n	8001306 <perifericos_task+0xaea>
 8001046:	e15e      	b.n	8001306 <perifericos_task+0xaea>
 8001048:	4bba      	ldr	r3, [pc, #744]	@ (8001334 <perifericos_task+0xb18>)
 800104a:	781b      	ldrb	r3, [r3, #0]
 800104c:	b2db      	uxtb	r3, r3
 800104e:	2b00      	cmp	r3, #0
 8001050:	d002      	beq.n	8001058 <perifericos_task+0x83c>
 8001052:	4bb8      	ldr	r3, [pc, #736]	@ (8001334 <perifericos_task+0xb18>)
 8001054:	2200      	movs	r2, #0
 8001056:	701a      	strb	r2, [r3, #0]
 8001058:	4bb7      	ldr	r3, [pc, #732]	@ (8001338 <perifericos_task+0xb1c>)
 800105a:	781b      	ldrb	r3, [r3, #0]
 800105c:	b2db      	uxtb	r3, r3
 800105e:	2b00      	cmp	r3, #0
 8001060:	d002      	beq.n	8001068 <perifericos_task+0x84c>
 8001062:	4bb5      	ldr	r3, [pc, #724]	@ (8001338 <perifericos_task+0xb1c>)
 8001064:	2200      	movs	r2, #0
 8001066:	701a      	strb	r2, [r3, #0]
 8001068:	4bb4      	ldr	r3, [pc, #720]	@ (800133c <perifericos_task+0xb20>)
 800106a:	781b      	ldrb	r3, [r3, #0]
 800106c:	b2db      	uxtb	r3, r3
 800106e:	2b00      	cmp	r3, #0
 8001070:	d002      	beq.n	8001078 <perifericos_task+0x85c>
 8001072:	4bb2      	ldr	r3, [pc, #712]	@ (800133c <perifericos_task+0xb20>)
 8001074:	2200      	movs	r2, #0
 8001076:	701a      	strb	r2, [r3, #0]
 8001078:	4bb1      	ldr	r3, [pc, #708]	@ (8001340 <perifericos_task+0xb24>)
 800107a:	781b      	ldrb	r3, [r3, #0]
 800107c:	b2db      	uxtb	r3, r3
 800107e:	2b00      	cmp	r3, #0
 8001080:	d002      	beq.n	8001088 <perifericos_task+0x86c>
 8001082:	4baf      	ldr	r3, [pc, #700]	@ (8001340 <perifericos_task+0xb24>)
 8001084:	2200      	movs	r2, #0
 8001086:	701a      	strb	r2, [r3, #0]
 8001088:	4bae      	ldr	r3, [pc, #696]	@ (8001344 <perifericos_task+0xb28>)
 800108a:	781b      	ldrb	r3, [r3, #0]
 800108c:	b2db      	uxtb	r3, r3
 800108e:	2b00      	cmp	r3, #0
 8001090:	d002      	beq.n	8001098 <perifericos_task+0x87c>
 8001092:	4bac      	ldr	r3, [pc, #688]	@ (8001344 <perifericos_task+0xb28>)
 8001094:	2200      	movs	r2, #0
 8001096:	701a      	strb	r2, [r3, #0]
 8001098:	4bab      	ldr	r3, [pc, #684]	@ (8001348 <perifericos_task+0xb2c>)
 800109a:	781b      	ldrb	r3, [r3, #0]
 800109c:	b2db      	uxtb	r3, r3
 800109e:	001a      	movs	r2, r3
 80010a0:	4b9f      	ldr	r3, [pc, #636]	@ (8001320 <perifericos_task+0xb04>)
 80010a2:	2102      	movs	r1, #2
 80010a4:	0018      	movs	r0, r3
 80010a6:	f000 fd2c 	bl	8001b02 <HAL_GPIO_WritePin>
 80010aa:	4b9e      	ldr	r3, [pc, #632]	@ (8001324 <perifericos_task+0xb08>)
 80010ac:	781b      	ldrb	r3, [r3, #0]
 80010ae:	b2db      	uxtb	r3, r3
 80010b0:	001a      	movs	r2, r3
 80010b2:	4b9b      	ldr	r3, [pc, #620]	@ (8001320 <perifericos_task+0xb04>)
 80010b4:	2101      	movs	r1, #1
 80010b6:	0018      	movs	r0, r3
 80010b8:	f000 fd23 	bl	8001b02 <HAL_GPIO_WritePin>
 80010bc:	4ba3      	ldr	r3, [pc, #652]	@ (800134c <perifericos_task+0xb30>)
 80010be:	781b      	ldrb	r3, [r3, #0]
 80010c0:	b2db      	uxtb	r3, r3
 80010c2:	001a      	movs	r2, r3
 80010c4:	4b96      	ldr	r3, [pc, #600]	@ (8001320 <perifericos_task+0xb04>)
 80010c6:	2104      	movs	r1, #4
 80010c8:	0018      	movs	r0, r3
 80010ca:	f000 fd1a 	bl	8001b02 <HAL_GPIO_WritePin>
 80010ce:	4ba0      	ldr	r3, [pc, #640]	@ (8001350 <perifericos_task+0xb34>)
 80010d0:	681b      	ldr	r3, [r3, #0]
 80010d2:	2b00      	cmp	r3, #0
 80010d4:	d000      	beq.n	80010d8 <perifericos_task+0x8bc>
 80010d6:	e10f      	b.n	80012f8 <perifericos_task+0xadc>
 80010d8:	4b9e      	ldr	r3, [pc, #632]	@ (8001354 <perifericos_task+0xb38>)
 80010da:	781b      	ldrb	r3, [r3, #0]
 80010dc:	b2db      	uxtb	r3, r3
 80010de:	001a      	movs	r2, r3
 80010e0:	4b8f      	ldr	r3, [pc, #572]	@ (8001320 <perifericos_task+0xb04>)
 80010e2:	2108      	movs	r1, #8
 80010e4:	0018      	movs	r0, r3
 80010e6:	f000 fd0c 	bl	8001b02 <HAL_GPIO_WritePin>
 80010ea:	4b9b      	ldr	r3, [pc, #620]	@ (8001358 <perifericos_task+0xb3c>)
 80010ec:	681a      	ldr	r2, [r3, #0]
 80010ee:	0013      	movs	r3, r2
 80010f0:	011b      	lsls	r3, r3, #4
 80010f2:	1a9b      	subs	r3, r3, r2
 80010f4:	009b      	lsls	r3, r3, #2
 80010f6:	001a      	movs	r2, r3
 80010f8:	4b98      	ldr	r3, [pc, #608]	@ (800135c <perifericos_task+0xb40>)
 80010fa:	601a      	str	r2, [r3, #0]
 80010fc:	4b8a      	ldr	r3, [pc, #552]	@ (8001328 <perifericos_task+0xb0c>)
 80010fe:	2207      	movs	r2, #7
 8001100:	701a      	strb	r2, [r3, #0]
 8001102:	e0f9      	b.n	80012f8 <perifericos_task+0xadc>
 8001104:	4b8b      	ldr	r3, [pc, #556]	@ (8001334 <perifericos_task+0xb18>)
 8001106:	781b      	ldrb	r3, [r3, #0]
 8001108:	b2db      	uxtb	r3, r3
 800110a:	2b00      	cmp	r3, #0
 800110c:	d002      	beq.n	8001114 <perifericos_task+0x8f8>
 800110e:	4b89      	ldr	r3, [pc, #548]	@ (8001334 <perifericos_task+0xb18>)
 8001110:	2200      	movs	r2, #0
 8001112:	701a      	strb	r2, [r3, #0]
 8001114:	4b88      	ldr	r3, [pc, #544]	@ (8001338 <perifericos_task+0xb1c>)
 8001116:	781b      	ldrb	r3, [r3, #0]
 8001118:	b2db      	uxtb	r3, r3
 800111a:	2b00      	cmp	r3, #0
 800111c:	d002      	beq.n	8001124 <perifericos_task+0x908>
 800111e:	4b86      	ldr	r3, [pc, #536]	@ (8001338 <perifericos_task+0xb1c>)
 8001120:	2200      	movs	r2, #0
 8001122:	701a      	strb	r2, [r3, #0]
 8001124:	4b85      	ldr	r3, [pc, #532]	@ (800133c <perifericos_task+0xb20>)
 8001126:	781b      	ldrb	r3, [r3, #0]
 8001128:	b2db      	uxtb	r3, r3
 800112a:	2b00      	cmp	r3, #0
 800112c:	d002      	beq.n	8001134 <perifericos_task+0x918>
 800112e:	4b83      	ldr	r3, [pc, #524]	@ (800133c <perifericos_task+0xb20>)
 8001130:	2200      	movs	r2, #0
 8001132:	701a      	strb	r2, [r3, #0]
 8001134:	4b82      	ldr	r3, [pc, #520]	@ (8001340 <perifericos_task+0xb24>)
 8001136:	781b      	ldrb	r3, [r3, #0]
 8001138:	b2db      	uxtb	r3, r3
 800113a:	2b00      	cmp	r3, #0
 800113c:	d002      	beq.n	8001144 <perifericos_task+0x928>
 800113e:	4b80      	ldr	r3, [pc, #512]	@ (8001340 <perifericos_task+0xb24>)
 8001140:	2200      	movs	r2, #0
 8001142:	701a      	strb	r2, [r3, #0]
 8001144:	4b7f      	ldr	r3, [pc, #508]	@ (8001344 <perifericos_task+0xb28>)
 8001146:	781b      	ldrb	r3, [r3, #0]
 8001148:	b2db      	uxtb	r3, r3
 800114a:	2b00      	cmp	r3, #0
 800114c:	d002      	beq.n	8001154 <perifericos_task+0x938>
 800114e:	4b7d      	ldr	r3, [pc, #500]	@ (8001344 <perifericos_task+0xb28>)
 8001150:	2200      	movs	r2, #0
 8001152:	701a      	strb	r2, [r3, #0]
 8001154:	4b7c      	ldr	r3, [pc, #496]	@ (8001348 <perifericos_task+0xb2c>)
 8001156:	781b      	ldrb	r3, [r3, #0]
 8001158:	b2db      	uxtb	r3, r3
 800115a:	001a      	movs	r2, r3
 800115c:	4b70      	ldr	r3, [pc, #448]	@ (8001320 <perifericos_task+0xb04>)
 800115e:	2102      	movs	r1, #2
 8001160:	0018      	movs	r0, r3
 8001162:	f000 fcce 	bl	8001b02 <HAL_GPIO_WritePin>
 8001166:	4b6f      	ldr	r3, [pc, #444]	@ (8001324 <perifericos_task+0xb08>)
 8001168:	781b      	ldrb	r3, [r3, #0]
 800116a:	b2db      	uxtb	r3, r3
 800116c:	001a      	movs	r2, r3
 800116e:	4b6c      	ldr	r3, [pc, #432]	@ (8001320 <perifericos_task+0xb04>)
 8001170:	2101      	movs	r1, #1
 8001172:	0018      	movs	r0, r3
 8001174:	f000 fcc5 	bl	8001b02 <HAL_GPIO_WritePin>
 8001178:	4b74      	ldr	r3, [pc, #464]	@ (800134c <perifericos_task+0xb30>)
 800117a:	781b      	ldrb	r3, [r3, #0]
 800117c:	b2db      	uxtb	r3, r3
 800117e:	001a      	movs	r2, r3
 8001180:	4b67      	ldr	r3, [pc, #412]	@ (8001320 <perifericos_task+0xb04>)
 8001182:	2104      	movs	r1, #4
 8001184:	0018      	movs	r0, r3
 8001186:	f000 fcbc 	bl	8001b02 <HAL_GPIO_WritePin>
 800118a:	4b74      	ldr	r3, [pc, #464]	@ (800135c <perifericos_task+0xb40>)
 800118c:	681b      	ldr	r3, [r3, #0]
 800118e:	2b00      	cmp	r3, #0
 8001190:	d000      	beq.n	8001194 <perifericos_task+0x978>
 8001192:	e0b3      	b.n	80012fc <perifericos_task+0xae0>
 8001194:	4b64      	ldr	r3, [pc, #400]	@ (8001328 <perifericos_task+0xb0c>)
 8001196:	2200      	movs	r2, #0
 8001198:	701a      	strb	r2, [r3, #0]
 800119a:	e0af      	b.n	80012fc <perifericos_task+0xae0>
 800119c:	4b63      	ldr	r3, [pc, #396]	@ (800132c <perifericos_task+0xb10>)
 800119e:	781b      	ldrb	r3, [r3, #0]
 80011a0:	b2db      	uxtb	r3, r3
 80011a2:	425a      	negs	r2, r3
 80011a4:	4153      	adcs	r3, r2
 80011a6:	b2da      	uxtb	r2, r3
 80011a8:	4b61      	ldr	r3, [pc, #388]	@ (8001330 <perifericos_task+0xb14>)
 80011aa:	701a      	strb	r2, [r3, #0]
 80011ac:	4b5b      	ldr	r3, [pc, #364]	@ (800131c <perifericos_task+0xb00>)
 80011ae:	781b      	ldrb	r3, [r3, #0]
 80011b0:	b2db      	uxtb	r3, r3
 80011b2:	001a      	movs	r2, r3
 80011b4:	4b5a      	ldr	r3, [pc, #360]	@ (8001320 <perifericos_task+0xb04>)
 80011b6:	2102      	movs	r1, #2
 80011b8:	0018      	movs	r0, r3
 80011ba:	f000 fca2 	bl	8001b02 <HAL_GPIO_WritePin>
 80011be:	4b59      	ldr	r3, [pc, #356]	@ (8001324 <perifericos_task+0xb08>)
 80011c0:	781b      	ldrb	r3, [r3, #0]
 80011c2:	b2db      	uxtb	r3, r3
 80011c4:	001a      	movs	r2, r3
 80011c6:	4b56      	ldr	r3, [pc, #344]	@ (8001320 <perifericos_task+0xb04>)
 80011c8:	2101      	movs	r1, #1
 80011ca:	0018      	movs	r0, r3
 80011cc:	f000 fc99 	bl	8001b02 <HAL_GPIO_WritePin>
 80011d0:	4b59      	ldr	r3, [pc, #356]	@ (8001338 <perifericos_task+0xb1c>)
 80011d2:	781b      	ldrb	r3, [r3, #0]
 80011d4:	b2db      	uxtb	r3, r3
 80011d6:	2b00      	cmp	r3, #0
 80011d8:	d002      	beq.n	80011e0 <perifericos_task+0x9c4>
 80011da:	4b57      	ldr	r3, [pc, #348]	@ (8001338 <perifericos_task+0xb1c>)
 80011dc:	2200      	movs	r2, #0
 80011de:	701a      	strb	r2, [r3, #0]
 80011e0:	4b54      	ldr	r3, [pc, #336]	@ (8001334 <perifericos_task+0xb18>)
 80011e2:	781b      	ldrb	r3, [r3, #0]
 80011e4:	b2db      	uxtb	r3, r3
 80011e6:	2b00      	cmp	r3, #0
 80011e8:	d002      	beq.n	80011f0 <perifericos_task+0x9d4>
 80011ea:	4b52      	ldr	r3, [pc, #328]	@ (8001334 <perifericos_task+0xb18>)
 80011ec:	2200      	movs	r2, #0
 80011ee:	701a      	strb	r2, [r3, #0]
 80011f0:	4b52      	ldr	r3, [pc, #328]	@ (800133c <perifericos_task+0xb20>)
 80011f2:	781b      	ldrb	r3, [r3, #0]
 80011f4:	b2db      	uxtb	r3, r3
 80011f6:	2b00      	cmp	r3, #0
 80011f8:	d002      	beq.n	8001200 <perifericos_task+0x9e4>
 80011fa:	4b50      	ldr	r3, [pc, #320]	@ (800133c <perifericos_task+0xb20>)
 80011fc:	2200      	movs	r2, #0
 80011fe:	701a      	strb	r2, [r3, #0]
 8001200:	4b50      	ldr	r3, [pc, #320]	@ (8001344 <perifericos_task+0xb28>)
 8001202:	781b      	ldrb	r3, [r3, #0]
 8001204:	b2db      	uxtb	r3, r3
 8001206:	2b00      	cmp	r3, #0
 8001208:	d100      	bne.n	800120c <perifericos_task+0x9f0>
 800120a:	e079      	b.n	8001300 <perifericos_task+0xae4>
 800120c:	4b4d      	ldr	r3, [pc, #308]	@ (8001344 <perifericos_task+0xb28>)
 800120e:	2200      	movs	r2, #0
 8001210:	701a      	strb	r2, [r3, #0]
 8001212:	4b4d      	ldr	r3, [pc, #308]	@ (8001348 <perifericos_task+0xb2c>)
 8001214:	781b      	ldrb	r3, [r3, #0]
 8001216:	b2db      	uxtb	r3, r3
 8001218:	001a      	movs	r2, r3
 800121a:	4b41      	ldr	r3, [pc, #260]	@ (8001320 <perifericos_task+0xb04>)
 800121c:	2102      	movs	r1, #2
 800121e:	0018      	movs	r0, r3
 8001220:	f000 fc6f 	bl	8001b02 <HAL_GPIO_WritePin>
 8001224:	4b3c      	ldr	r3, [pc, #240]	@ (8001318 <perifericos_task+0xafc>)
 8001226:	2200      	movs	r2, #0
 8001228:	701a      	strb	r2, [r3, #0]
 800122a:	4b3f      	ldr	r3, [pc, #252]	@ (8001328 <perifericos_task+0xb0c>)
 800122c:	2209      	movs	r2, #9
 800122e:	701a      	strb	r2, [r3, #0]
 8001230:	e066      	b.n	8001300 <perifericos_task+0xae4>
 8001232:	4b45      	ldr	r3, [pc, #276]	@ (8001348 <perifericos_task+0xb2c>)
 8001234:	781b      	ldrb	r3, [r3, #0]
 8001236:	b2db      	uxtb	r3, r3
 8001238:	001a      	movs	r2, r3
 800123a:	4b39      	ldr	r3, [pc, #228]	@ (8001320 <perifericos_task+0xb04>)
 800123c:	2102      	movs	r1, #2
 800123e:	0018      	movs	r0, r3
 8001240:	f000 fc5f 	bl	8001b02 <HAL_GPIO_WritePin>
 8001244:	4b37      	ldr	r3, [pc, #220]	@ (8001324 <perifericos_task+0xb08>)
 8001246:	781b      	ldrb	r3, [r3, #0]
 8001248:	b2db      	uxtb	r3, r3
 800124a:	001a      	movs	r2, r3
 800124c:	4b34      	ldr	r3, [pc, #208]	@ (8001320 <perifericos_task+0xb04>)
 800124e:	2101      	movs	r1, #1
 8001250:	0018      	movs	r0, r3
 8001252:	f000 fc56 	bl	8001b02 <HAL_GPIO_WritePin>
 8001256:	4b3d      	ldr	r3, [pc, #244]	@ (800134c <perifericos_task+0xb30>)
 8001258:	781b      	ldrb	r3, [r3, #0]
 800125a:	b2db      	uxtb	r3, r3
 800125c:	001a      	movs	r2, r3
 800125e:	4b30      	ldr	r3, [pc, #192]	@ (8001320 <perifericos_task+0xb04>)
 8001260:	2104      	movs	r1, #4
 8001262:	0018      	movs	r0, r3
 8001264:	f000 fc4d 	bl	8001b02 <HAL_GPIO_WritePin>
 8001268:	4b3a      	ldr	r3, [pc, #232]	@ (8001354 <perifericos_task+0xb38>)
 800126a:	781b      	ldrb	r3, [r3, #0]
 800126c:	b2db      	uxtb	r3, r3
 800126e:	001a      	movs	r2, r3
 8001270:	4b2b      	ldr	r3, [pc, #172]	@ (8001320 <perifericos_task+0xb04>)
 8001272:	2108      	movs	r1, #8
 8001274:	0018      	movs	r0, r3
 8001276:	f000 fc44 	bl	8001b02 <HAL_GPIO_WritePin>
 800127a:	4b2e      	ldr	r3, [pc, #184]	@ (8001334 <perifericos_task+0xb18>)
 800127c:	781b      	ldrb	r3, [r3, #0]
 800127e:	b2db      	uxtb	r3, r3
 8001280:	2b00      	cmp	r3, #0
 8001282:	d002      	beq.n	800128a <perifericos_task+0xa6e>
 8001284:	4b2b      	ldr	r3, [pc, #172]	@ (8001334 <perifericos_task+0xb18>)
 8001286:	2200      	movs	r2, #0
 8001288:	701a      	strb	r2, [r3, #0]
 800128a:	4b2c      	ldr	r3, [pc, #176]	@ (800133c <perifericos_task+0xb20>)
 800128c:	781b      	ldrb	r3, [r3, #0]
 800128e:	b2db      	uxtb	r3, r3
 8001290:	2b00      	cmp	r3, #0
 8001292:	d002      	beq.n	800129a <perifericos_task+0xa7e>
 8001294:	4b29      	ldr	r3, [pc, #164]	@ (800133c <perifericos_task+0xb20>)
 8001296:	2200      	movs	r2, #0
 8001298:	701a      	strb	r2, [r3, #0]
 800129a:	4b29      	ldr	r3, [pc, #164]	@ (8001340 <perifericos_task+0xb24>)
 800129c:	781b      	ldrb	r3, [r3, #0]
 800129e:	b2db      	uxtb	r3, r3
 80012a0:	2b00      	cmp	r3, #0
 80012a2:	d002      	beq.n	80012aa <perifericos_task+0xa8e>
 80012a4:	4b26      	ldr	r3, [pc, #152]	@ (8001340 <perifericos_task+0xb24>)
 80012a6:	2200      	movs	r2, #0
 80012a8:	701a      	strb	r2, [r3, #0]
 80012aa:	4b23      	ldr	r3, [pc, #140]	@ (8001338 <perifericos_task+0xb1c>)
 80012ac:	781b      	ldrb	r3, [r3, #0]
 80012ae:	b2db      	uxtb	r3, r3
 80012b0:	2b00      	cmp	r3, #0
 80012b2:	d002      	beq.n	80012ba <perifericos_task+0xa9e>
 80012b4:	4b20      	ldr	r3, [pc, #128]	@ (8001338 <perifericos_task+0xb1c>)
 80012b6:	2200      	movs	r2, #0
 80012b8:	701a      	strb	r2, [r3, #0]
 80012ba:	4b22      	ldr	r3, [pc, #136]	@ (8001344 <perifericos_task+0xb28>)
 80012bc:	781b      	ldrb	r3, [r3, #0]
 80012be:	b2db      	uxtb	r3, r3
 80012c0:	2b00      	cmp	r3, #0
 80012c2:	d002      	beq.n	80012ca <perifericos_task+0xaae>
 80012c4:	4b1f      	ldr	r3, [pc, #124]	@ (8001344 <perifericos_task+0xb28>)
 80012c6:	2200      	movs	r2, #0
 80012c8:	701a      	strb	r2, [r3, #0]
 80012ca:	4b13      	ldr	r3, [pc, #76]	@ (8001318 <perifericos_task+0xafc>)
 80012cc:	781b      	ldrb	r3, [r3, #0]
 80012ce:	b2db      	uxtb	r3, r3
 80012d0:	2b00      	cmp	r3, #0
 80012d2:	d017      	beq.n	8001304 <perifericos_task+0xae8>
 80012d4:	4b15      	ldr	r3, [pc, #84]	@ (800132c <perifericos_task+0xb10>)
 80012d6:	781b      	ldrb	r3, [r3, #0]
 80012d8:	b2db      	uxtb	r3, r3
 80012da:	1e5a      	subs	r2, r3, #1
 80012dc:	4193      	sbcs	r3, r2
 80012de:	b2da      	uxtb	r2, r3
 80012e0:	4b13      	ldr	r3, [pc, #76]	@ (8001330 <perifericos_task+0xb14>)
 80012e2:	701a      	strb	r2, [r3, #0]
 80012e4:	4b10      	ldr	r3, [pc, #64]	@ (8001328 <perifericos_task+0xb0c>)
 80012e6:	2200      	movs	r2, #0
 80012e8:	701a      	strb	r2, [r3, #0]
 80012ea:	e00b      	b.n	8001304 <perifericos_task+0xae8>
 80012ec:	46c0      	nop			@ (mov r8, r8)
 80012ee:	e00a      	b.n	8001306 <perifericos_task+0xaea>
 80012f0:	46c0      	nop			@ (mov r8, r8)
 80012f2:	e008      	b.n	8001306 <perifericos_task+0xaea>
 80012f4:	46c0      	nop			@ (mov r8, r8)
 80012f6:	e006      	b.n	8001306 <perifericos_task+0xaea>
 80012f8:	46c0      	nop			@ (mov r8, r8)
 80012fa:	e004      	b.n	8001306 <perifericos_task+0xaea>
 80012fc:	46c0      	nop			@ (mov r8, r8)
 80012fe:	e002      	b.n	8001306 <perifericos_task+0xaea>
 8001300:	46c0      	nop			@ (mov r8, r8)
 8001302:	e000      	b.n	8001306 <perifericos_task+0xaea>
 8001304:	46c0      	nop			@ (mov r8, r8)
 8001306:	46c0      	nop			@ (mov r8, r8)
 8001308:	46bd      	mov	sp, r7
 800130a:	b003      	add	sp, #12
 800130c:	bd90      	pop	{r4, r7, pc}
 800130e:	46c0      	nop			@ (mov r8, r8)
 8001310:	20000084 	.word	0x20000084
 8001314:	20000056 	.word	0x20000056
 8001318:	20000085 	.word	0x20000085
 800131c:	2000007c 	.word	0x2000007c
 8001320:	50000400 	.word	0x50000400
 8001324:	20000077 	.word	0x20000077
 8001328:	20000086 	.word	0x20000086
 800132c:	20000055 	.word	0x20000055
 8001330:	2000005c 	.word	0x2000005c
 8001334:	2000007e 	.word	0x2000007e
 8001338:	20000082 	.word	0x20000082
 800133c:	2000007f 	.word	0x2000007f
 8001340:	20000080 	.word	0x20000080
 8001344:	20000081 	.word	0x20000081
 8001348:	2000007d 	.word	0x2000007d
 800134c:	20000079 	.word	0x20000079
 8001350:	20000068 	.word	0x20000068
 8001354:	2000007b 	.word	0x2000007b
 8001358:	2000000c 	.word	0x2000000c
 800135c:	2000006c 	.word	0x2000006c

08001360 <HAL_MspInit>:
 8001360:	b580      	push	{r7, lr}
 8001362:	b082      	sub	sp, #8
 8001364:	af00      	add	r7, sp, #0
 8001366:	4b0f      	ldr	r3, [pc, #60]	@ (80013a4 <HAL_MspInit+0x44>)
 8001368:	6c1a      	ldr	r2, [r3, #64]	@ 0x40
 800136a:	4b0e      	ldr	r3, [pc, #56]	@ (80013a4 <HAL_MspInit+0x44>)
 800136c:	2101      	movs	r1, #1
 800136e:	430a      	orrs	r2, r1
 8001370:	641a      	str	r2, [r3, #64]	@ 0x40
 8001372:	4b0c      	ldr	r3, [pc, #48]	@ (80013a4 <HAL_MspInit+0x44>)
 8001374:	6c1b      	ldr	r3, [r3, #64]	@ 0x40
 8001376:	2201      	movs	r2, #1
 8001378:	4013      	ands	r3, r2
 800137a:	607b      	str	r3, [r7, #4]
 800137c:	687b      	ldr	r3, [r7, #4]
 800137e:	4b09      	ldr	r3, [pc, #36]	@ (80013a4 <HAL_MspInit+0x44>)
 8001380:	6bda      	ldr	r2, [r3, #60]	@ 0x3c
 8001382:	4b08      	ldr	r3, [pc, #32]	@ (80013a4 <HAL_MspInit+0x44>)
 8001384:	2180      	movs	r1, #128	@ 0x80
 8001386:	0549      	lsls	r1, r1, #21
 8001388:	430a      	orrs	r2, r1
 800138a:	63da      	str	r2, [r3, #60]	@ 0x3c
 800138c:	4b05      	ldr	r3, [pc, #20]	@ (80013a4 <HAL_MspInit+0x44>)
 800138e:	6bda      	ldr	r2, [r3, #60]	@ 0x3c
 8001390:	2380      	movs	r3, #128	@ 0x80
 8001392:	055b      	lsls	r3, r3, #21
 8001394:	4013      	ands	r3, r2
 8001396:	603b      	str	r3, [r7, #0]
 8001398:	683b      	ldr	r3, [r7, #0]
 800139a:	46c0      	nop			@ (mov r8, r8)
 800139c:	46bd      	mov	sp, r7
 800139e:	b002      	add	sp, #8
 80013a0:	bd80      	pop	{r7, pc}
 80013a2:	46c0      	nop			@ (mov r8, r8)
 80013a4:	40021000 	.word	0x40021000

080013a8 <NMI_Handler>:
 80013a8:	b580      	push	{r7, lr}
 80013aa:	af00      	add	r7, sp, #0
 80013ac:	46c0      	nop			@ (mov r8, r8)
 80013ae:	e7fd      	b.n	80013ac <NMI_Handler+0x4>

080013b0 <HardFault_Handler>:
 80013b0:	b580      	push	{r7, lr}
 80013b2:	af00      	add	r7, sp, #0
 80013b4:	46c0      	nop			@ (mov r8, r8)
 80013b6:	e7fd      	b.n	80013b4 <HardFault_Handler+0x4>

080013b8 <SVC_Handler>:
 80013b8:	b580      	push	{r7, lr}
 80013ba:	af00      	add	r7, sp, #0
 80013bc:	46c0      	nop			@ (mov r8, r8)
 80013be:	46bd      	mov	sp, r7
 80013c0:	bd80      	pop	{r7, pc}

080013c2 <PendSV_Handler>:
 80013c2:	b580      	push	{r7, lr}
 80013c4:	af00      	add	r7, sp, #0
 80013c6:	46c0      	nop			@ (mov r8, r8)
 80013c8:	46bd      	mov	sp, r7
 80013ca:	bd80      	pop	{r7, pc}

080013cc <SysTick_Handler>:
 80013cc:	b580      	push	{r7, lr}
 80013ce:	af00      	add	r7, sp, #0
 80013d0:	f000 f90e 	bl	80015f0 <HAL_IncTick>
 80013d4:	46c0      	nop			@ (mov r8, r8)
 80013d6:	46bd      	mov	sp, r7
 80013d8:	bd80      	pop	{r7, pc}

080013da <EXTI0_1_IRQHandler>:
 80013da:	b580      	push	{r7, lr}
 80013dc:	af00      	add	r7, sp, #0
 80013de:	2001      	movs	r0, #1
 80013e0:	f000 fbc8 	bl	8001b74 <HAL_GPIO_EXTI_IRQHandler>
 80013e4:	46c0      	nop			@ (mov r8, r8)
 80013e6:	46bd      	mov	sp, r7
 80013e8:	bd80      	pop	{r7, pc}

080013ea <EXTI4_15_IRQHandler>:
 80013ea:	b580      	push	{r7, lr}
 80013ec:	af00      	add	r7, sp, #0
 80013ee:	2010      	movs	r0, #16
 80013f0:	f000 fbc0 	bl	8001b74 <HAL_GPIO_EXTI_IRQHandler>
 80013f4:	2020      	movs	r0, #32
 80013f6:	f000 fbbd 	bl	8001b74 <HAL_GPIO_EXTI_IRQHandler>
 80013fa:	2040      	movs	r0, #64	@ 0x40
 80013fc:	f000 fbba 	bl	8001b74 <HAL_GPIO_EXTI_IRQHandler>
 8001400:	2080      	movs	r0, #128	@ 0x80
 8001402:	f000 fbb7 	bl	8001b74 <HAL_GPIO_EXTI_IRQHandler>
 8001406:	46c0      	nop			@ (mov r8, r8)
 8001408:	46bd      	mov	sp, r7
 800140a:	bd80      	pop	{r7, pc}

0800140c <TIM14_IRQHandler>:
 800140c:	b580      	push	{r7, lr}
 800140e:	af00      	add	r7, sp, #0
 8001410:	4b03      	ldr	r3, [pc, #12]	@ (8001420 <TIM14_IRQHandler+0x14>)
 8001412:	0018      	movs	r0, r3
 8001414:	f000 ffb6 	bl	8002384 <HAL_TIM_IRQHandler>
 8001418:	46c0      	nop			@ (mov r8, r8)
 800141a:	46bd      	mov	sp, r7
 800141c:	bd80      	pop	{r7, pc}
 800141e:	46c0      	nop			@ (mov r8, r8)
 8001420:	20000088 	.word	0x20000088

08001424 <SystemInit>:
 8001424:	b580      	push	{r7, lr}
 8001426:	af00      	add	r7, sp, #0
 8001428:	4b03      	ldr	r3, [pc, #12]	@ (8001438 <SystemInit+0x14>)
 800142a:	2280      	movs	r2, #128	@ 0x80
 800142c:	0512      	lsls	r2, r2, #20
 800142e:	609a      	str	r2, [r3, #8]
 8001430:	46c0      	nop			@ (mov r8, r8)
 8001432:	46bd      	mov	sp, r7
 8001434:	bd80      	pop	{r7, pc}
 8001436:	46c0      	nop			@ (mov r8, r8)
 8001438:	e000ed00 	.word	0xe000ed00

0800143c <MX_TIM14_Init>:
 800143c:	b580      	push	{r7, lr}
 800143e:	af00      	add	r7, sp, #0
 8001440:	4b0e      	ldr	r3, [pc, #56]	@ (800147c <MX_TIM14_Init+0x40>)
 8001442:	4a0f      	ldr	r2, [pc, #60]	@ (8001480 <MX_TIM14_Init+0x44>)
 8001444:	601a      	str	r2, [r3, #0]
 8001446:	4b0d      	ldr	r3, [pc, #52]	@ (800147c <MX_TIM14_Init+0x40>)
 8001448:	4a0e      	ldr	r2, [pc, #56]	@ (8001484 <MX_TIM14_Init+0x48>)
 800144a:	605a      	str	r2, [r3, #4]
 800144c:	4b0b      	ldr	r3, [pc, #44]	@ (800147c <MX_TIM14_Init+0x40>)
 800144e:	2200      	movs	r2, #0
 8001450:	609a      	str	r2, [r3, #8]
 8001452:	4b0a      	ldr	r3, [pc, #40]	@ (800147c <MX_TIM14_Init+0x40>)
 8001454:	4a0c      	ldr	r2, [pc, #48]	@ (8001488 <MX_TIM14_Init+0x4c>)
 8001456:	60da      	str	r2, [r3, #12]
 8001458:	4b08      	ldr	r3, [pc, #32]	@ (800147c <MX_TIM14_Init+0x40>)
 800145a:	2200      	movs	r2, #0
 800145c:	611a      	str	r2, [r3, #16]
 800145e:	4b07      	ldr	r3, [pc, #28]	@ (800147c <MX_TIM14_Init+0x40>)
 8001460:	2200      	movs	r2, #0
 8001462:	619a      	str	r2, [r3, #24]
 8001464:	4b05      	ldr	r3, [pc, #20]	@ (800147c <MX_TIM14_Init+0x40>)
 8001466:	0018      	movs	r0, r3
 8001468:	f000 fee6 	bl	8002238 <HAL_TIM_Base_Init>
 800146c:	1e03      	subs	r3, r0, #0
 800146e:	d001      	beq.n	8001474 <MX_TIM14_Init+0x38>
 8001470:	f7ff f81a 	bl	80004a8 <Error_Handler>
 8001474:	46c0      	nop			@ (mov r8, r8)
 8001476:	46bd      	mov	sp, r7
 8001478:	bd80      	pop	{r7, pc}
 800147a:	46c0      	nop			@ (mov r8, r8)
 800147c:	20000088 	.word	0x20000088
 8001480:	40002000 	.word	0x40002000
 8001484:	0000bb7f 	.word	0x0000bb7f
 8001488:	000003e7 	.word	0x000003e7

0800148c <HAL_TIM_Base_MspInit>:
 800148c:	b580      	push	{r7, lr}
 800148e:	b084      	sub	sp, #16
 8001490:	af00      	add	r7, sp, #0
 8001492:	6078      	str	r0, [r7, #4]
 8001494:	687b      	ldr	r3, [r7, #4]
 8001496:	681b      	ldr	r3, [r3, #0]
 8001498:	4a0e      	ldr	r2, [pc, #56]	@ (80014d4 <HAL_TIM_Base_MspInit+0x48>)
 800149a:	4293      	cmp	r3, r2
 800149c:	d115      	bne.n	80014ca <HAL_TIM_Base_MspInit+0x3e>
 800149e:	4b0e      	ldr	r3, [pc, #56]	@ (80014d8 <HAL_TIM_Base_MspInit+0x4c>)
 80014a0:	6c1a      	ldr	r2, [r3, #64]	@ 0x40
 80014a2:	4b0d      	ldr	r3, [pc, #52]	@ (80014d8 <HAL_TIM_Base_MspInit+0x4c>)
 80014a4:	2180      	movs	r1, #128	@ 0x80
 80014a6:	0209      	lsls	r1, r1, #8
 80014a8:	430a      	orrs	r2, r1
 80014aa:	641a      	str	r2, [r3, #64]	@ 0x40
 80014ac:	4b0a      	ldr	r3, [pc, #40]	@ (80014d8 <HAL_TIM_Base_MspInit+0x4c>)
 80014ae:	6c1a      	ldr	r2, [r3, #64]	@ 0x40
 80014b0:	2380      	movs	r3, #128	@ 0x80
 80014b2:	021b      	lsls	r3, r3, #8
 80014b4:	4013      	ands	r3, r2
 80014b6:	60fb      	str	r3, [r7, #12]
 80014b8:	68fb      	ldr	r3, [r7, #12]
 80014ba:	2200      	movs	r2, #0
 80014bc:	2100      	movs	r1, #0
 80014be:	2013      	movs	r0, #19
 80014c0:	f000 f95e 	bl	8001780 <HAL_NVIC_SetPriority>
 80014c4:	2013      	movs	r0, #19
 80014c6:	f000 f970 	bl	80017aa <HAL_NVIC_EnableIRQ>
 80014ca:	46c0      	nop			@ (mov r8, r8)
 80014cc:	46bd      	mov	sp, r7
 80014ce:	b004      	add	sp, #16
 80014d0:	bd80      	pop	{r7, pc}
 80014d2:	46c0      	nop			@ (mov r8, r8)
 80014d4:	40002000 	.word	0x40002000
 80014d8:	40021000 	.word	0x40021000

080014dc <Reset_Handler>:
 80014dc:	480d      	ldr	r0, [pc, #52]	@ (8001514 <LoopForever+0x2>)
 80014de:	4685      	mov	sp, r0
 80014e0:	f7ff ffa0 	bl	8001424 <SystemInit>
 80014e4:	2100      	movs	r1, #0
 80014e6:	e003      	b.n	80014f0 <LoopCopyDataInit>

080014e8 <CopyDataInit>:
 80014e8:	4b0b      	ldr	r3, [pc, #44]	@ (8001518 <LoopForever+0x6>)
 80014ea:	585b      	ldr	r3, [r3, r1]
 80014ec:	5043      	str	r3, [r0, r1]
 80014ee:	3104      	adds	r1, #4

080014f0 <LoopCopyDataInit>:
 80014f0:	480a      	ldr	r0, [pc, #40]	@ (800151c <LoopForever+0xa>)
 80014f2:	4b0b      	ldr	r3, [pc, #44]	@ (8001520 <LoopForever+0xe>)
 80014f4:	1842      	adds	r2, r0, r1
 80014f6:	429a      	cmp	r2, r3
 80014f8:	d3f6      	bcc.n	80014e8 <CopyDataInit>
 80014fa:	4a0a      	ldr	r2, [pc, #40]	@ (8001524 <LoopForever+0x12>)
 80014fc:	e002      	b.n	8001504 <LoopFillZerobss>

080014fe <FillZerobss>:
 80014fe:	2300      	movs	r3, #0
 8001500:	6013      	str	r3, [r2, #0]
 8001502:	3204      	adds	r2, #4

08001504 <LoopFillZerobss>:
 8001504:	4b08      	ldr	r3, [pc, #32]	@ (8001528 <LoopForever+0x16>)
 8001506:	429a      	cmp	r2, r3
 8001508:	d3f9      	bcc.n	80014fe <FillZerobss>
 800150a:	f001 f8f5 	bl	80026f8 <__libc_init_array>
 800150e:	f7fe ff55 	bl	80003bc <main>

08001512 <LoopForever>:
 8001512:	e7fe      	b.n	8001512 <LoopForever>
 8001514:	20003000 	.word	0x20003000
 8001518:	080027d0 	.word	0x080027d0
 800151c:	20000000 	.word	0x20000000
 8001520:	2000002c 	.word	0x2000002c
 8001524:	2000002c 	.word	0x2000002c
 8001528:	200000d8 	.word	0x200000d8

0800152c <ADC1_IRQHandler>:
 800152c:	e7fe      	b.n	800152c <ADC1_IRQHandler>

0800152e <HAL_Init>:
 800152e:	b580      	push	{r7, lr}
 8001530:	b082      	sub	sp, #8
 8001532:	af00      	add	r7, sp, #0
 8001534:	1dfb      	adds	r3, r7, #7
 8001536:	2200      	movs	r2, #0
 8001538:	701a      	strb	r2, [r3, #0]
 800153a:	2003      	movs	r0, #3
 800153c:	f000 f80e 	bl	800155c <HAL_InitTick>
 8001540:	1e03      	subs	r3, r0, #0
 8001542:	d003      	beq.n	800154c <HAL_Init+0x1e>
 8001544:	1dfb      	adds	r3, r7, #7
 8001546:	2201      	movs	r2, #1
 8001548:	701a      	strb	r2, [r3, #0]
 800154a:	e001      	b.n	8001550 <HAL_Init+0x22>
 800154c:	f7ff ff08 	bl	8001360 <HAL_MspInit>
 8001550:	1dfb      	adds	r3, r7, #7
 8001552:	781b      	ldrb	r3, [r3, #0]
 8001554:	0018      	movs	r0, r3
 8001556:	46bd      	mov	sp, r7
 8001558:	b002      	add	sp, #8
 800155a:	bd80      	pop	{r7, pc}

0800155c <HAL_InitTick>:
 800155c:	b590      	push	{r4, r7, lr}
 800155e:	b085      	sub	sp, #20
 8001560:	af00      	add	r7, sp, #0
 8001562:	6078      	str	r0, [r7, #4]
 8001564:	230f      	movs	r3, #15
 8001566:	18fb      	adds	r3, r7, r3
 8001568:	2200      	movs	r2, #0
 800156a:	701a      	strb	r2, [r3, #0]
 800156c:	4b1d      	ldr	r3, [pc, #116]	@ (80015e4 <HAL_InitTick+0x88>)
 800156e:	781b      	ldrb	r3, [r3, #0]
 8001570:	2b00      	cmp	r3, #0
 8001572:	d02b      	beq.n	80015cc <HAL_InitTick+0x70>
 8001574:	4b1c      	ldr	r3, [pc, #112]	@ (80015e8 <HAL_InitTick+0x8c>)
 8001576:	681c      	ldr	r4, [r3, #0]
 8001578:	4b1a      	ldr	r3, [pc, #104]	@ (80015e4 <HAL_InitTick+0x88>)
 800157a:	781b      	ldrb	r3, [r3, #0]
 800157c:	0019      	movs	r1, r3
 800157e:	23fa      	movs	r3, #250	@ 0xfa
 8001580:	0098      	lsls	r0, r3, #2
 8001582:	f7fe fdc1 	bl	8000108 <__udivsi3>
 8001586:	0003      	movs	r3, r0
 8001588:	0019      	movs	r1, r3
 800158a:	0020      	movs	r0, r4
 800158c:	f7fe fdbc 	bl	8000108 <__udivsi3>
 8001590:	0003      	movs	r3, r0
 8001592:	0018      	movs	r0, r3
 8001594:	f000 f919 	bl	80017ca <HAL_SYSTICK_Config>
 8001598:	1e03      	subs	r3, r0, #0
 800159a:	d112      	bne.n	80015c2 <HAL_InitTick+0x66>
 800159c:	687b      	ldr	r3, [r7, #4]
 800159e:	2b03      	cmp	r3, #3
 80015a0:	d80a      	bhi.n	80015b8 <HAL_InitTick+0x5c>
 80015a2:	6879      	ldr	r1, [r7, #4]
 80015a4:	2301      	movs	r3, #1
 80015a6:	425b      	negs	r3, r3
 80015a8:	2200      	movs	r2, #0
 80015aa:	0018      	movs	r0, r3
 80015ac:	f000 f8e8 	bl	8001780 <HAL_NVIC_SetPriority>
 80015b0:	4b0e      	ldr	r3, [pc, #56]	@ (80015ec <HAL_InitTick+0x90>)
 80015b2:	687a      	ldr	r2, [r7, #4]
 80015b4:	601a      	str	r2, [r3, #0]
 80015b6:	e00d      	b.n	80015d4 <HAL_InitTick+0x78>
 80015b8:	230f      	movs	r3, #15
 80015ba:	18fb      	adds	r3, r7, r3
 80015bc:	2201      	movs	r2, #1
 80015be:	701a      	strb	r2, [r3, #0]
 80015c0:	e008      	b.n	80015d4 <HAL_InitTick+0x78>
 80015c2:	230f      	movs	r3, #15
 80015c4:	18fb      	adds	r3, r7, r3
 80015c6:	2201      	movs	r2, #1
 80015c8:	701a      	strb	r2, [r3, #0]
 80015ca:	e003      	b.n	80015d4 <HAL_InitTick+0x78>
 80015cc:	230f      	movs	r3, #15
 80015ce:	18fb      	adds	r3, r7, r3
 80015d0:	2201      	movs	r2, #1
 80015d2:	701a      	strb	r2, [r3, #0]
 80015d4:	230f      	movs	r3, #15
 80015d6:	18fb      	adds	r3, r7, r3
 80015d8:	781b      	ldrb	r3, [r3, #0]
 80015da:	0018      	movs	r0, r3
 80015dc:	46bd      	mov	sp, r7
 80015de:	b005      	add	sp, #20
 80015e0:	bd90      	pop	{r4, r7, pc}
 80015e2:	46c0      	nop			@ (mov r8, r8)
 80015e4:	20000028 	.word	0x20000028
 80015e8:	20000020 	.word	0x20000020
 80015ec:	20000024 	.word	0x20000024

080015f0 <HAL_IncTick>:
 80015f0:	b580      	push	{r7, lr}
 80015f2:	af00      	add	r7, sp, #0
 80015f4:	4b05      	ldr	r3, [pc, #20]	@ (800160c <HAL_IncTick+0x1c>)
 80015f6:	781b      	ldrb	r3, [r3, #0]
 80015f8:	001a      	movs	r2, r3
 80015fa:	4b05      	ldr	r3, [pc, #20]	@ (8001610 <HAL_IncTick+0x20>)
 80015fc:	681b      	ldr	r3, [r3, #0]
 80015fe:	18d2      	adds	r2, r2, r3
 8001600:	4b03      	ldr	r3, [pc, #12]	@ (8001610 <HAL_IncTick+0x20>)
 8001602:	601a      	str	r2, [r3, #0]
 8001604:	46c0      	nop			@ (mov r8, r8)
 8001606:	46bd      	mov	sp, r7
 8001608:	bd80      	pop	{r7, pc}
 800160a:	46c0      	nop			@ (mov r8, r8)
 800160c:	20000028 	.word	0x20000028
 8001610:	200000d4 	.word	0x200000d4

08001614 <HAL_GetTick>:
 8001614:	b580      	push	{r7, lr}
 8001616:	af00      	add	r7, sp, #0
 8001618:	4b02      	ldr	r3, [pc, #8]	@ (8001624 <HAL_GetTick+0x10>)
 800161a:	681b      	ldr	r3, [r3, #0]
 800161c:	0018      	movs	r0, r3
 800161e:	46bd      	mov	sp, r7
 8001620:	bd80      	pop	{r7, pc}
 8001622:	46c0      	nop			@ (mov r8, r8)
 8001624:	200000d4 	.word	0x200000d4

08001628 <__NVIC_EnableIRQ>:
 8001628:	b580      	push	{r7, lr}
 800162a:	b082      	sub	sp, #8
 800162c:	af00      	add	r7, sp, #0
 800162e:	0002      	movs	r2, r0
 8001630:	1dfb      	adds	r3, r7, #7
 8001632:	701a      	strb	r2, [r3, #0]
 8001634:	1dfb      	adds	r3, r7, #7
 8001636:	781b      	ldrb	r3, [r3, #0]
 8001638:	2b7f      	cmp	r3, #127	@ 0x7f
 800163a:	d809      	bhi.n	8001650 <__NVIC_EnableIRQ+0x28>
 800163c:	1dfb      	adds	r3, r7, #7
 800163e:	781b      	ldrb	r3, [r3, #0]
 8001640:	001a      	movs	r2, r3
 8001642:	231f      	movs	r3, #31
 8001644:	401a      	ands	r2, r3
 8001646:	4b04      	ldr	r3, [pc, #16]	@ (8001658 <__NVIC_EnableIRQ+0x30>)
 8001648:	2101      	movs	r1, #1
 800164a:	4091      	lsls	r1, r2
 800164c:	000a      	movs	r2, r1
 800164e:	601a      	str	r2, [r3, #0]
 8001650:	46c0      	nop			@ (mov r8, r8)
 8001652:	46bd      	mov	sp, r7
 8001654:	b002      	add	sp, #8
 8001656:	bd80      	pop	{r7, pc}
 8001658:	e000e100 	.word	0xe000e100

0800165c <__NVIC_SetPriority>:
 800165c:	b590      	push	{r4, r7, lr}
 800165e:	b083      	sub	sp, #12
 8001660:	af00      	add	r7, sp, #0
 8001662:	0002      	movs	r2, r0
 8001664:	6039      	str	r1, [r7, #0]
 8001666:	1dfb      	adds	r3, r7, #7
 8001668:	701a      	strb	r2, [r3, #0]
 800166a:	1dfb      	adds	r3, r7, #7
 800166c:	781b      	ldrb	r3, [r3, #0]
 800166e:	2b7f      	cmp	r3, #127	@ 0x7f
 8001670:	d828      	bhi.n	80016c4 <__NVIC_SetPriority+0x68>
 8001672:	4a2f      	ldr	r2, [pc, #188]	@ (8001730 <__NVIC_SetPriority+0xd4>)
 8001674:	1dfb      	adds	r3, r7, #7
 8001676:	781b      	ldrb	r3, [r3, #0]
 8001678:	b25b      	sxtb	r3, r3
 800167a:	089b      	lsrs	r3, r3, #2
 800167c:	33c0      	adds	r3, #192	@ 0xc0
 800167e:	009b      	lsls	r3, r3, #2
 8001680:	589b      	ldr	r3, [r3, r2]
 8001682:	1dfa      	adds	r2, r7, #7
 8001684:	7812      	ldrb	r2, [r2, #0]
 8001686:	0011      	movs	r1, r2
 8001688:	2203      	movs	r2, #3
 800168a:	400a      	ands	r2, r1
 800168c:	00d2      	lsls	r2, r2, #3
 800168e:	21ff      	movs	r1, #255	@ 0xff
 8001690:	4091      	lsls	r1, r2
 8001692:	000a      	movs	r2, r1
 8001694:	43d2      	mvns	r2, r2
 8001696:	401a      	ands	r2, r3
 8001698:	0011      	movs	r1, r2
 800169a:	683b      	ldr	r3, [r7, #0]
 800169c:	019b      	lsls	r3, r3, #6
 800169e:	22ff      	movs	r2, #255	@ 0xff
 80016a0:	401a      	ands	r2, r3
 80016a2:	1dfb      	adds	r3, r7, #7
 80016a4:	781b      	ldrb	r3, [r3, #0]
 80016a6:	0018      	movs	r0, r3
 80016a8:	2303      	movs	r3, #3
 80016aa:	4003      	ands	r3, r0
 80016ac:	00db      	lsls	r3, r3, #3
 80016ae:	409a      	lsls	r2, r3
 80016b0:	481f      	ldr	r0, [pc, #124]	@ (8001730 <__NVIC_SetPriority+0xd4>)
 80016b2:	1dfb      	adds	r3, r7, #7
 80016b4:	781b      	ldrb	r3, [r3, #0]
 80016b6:	b25b      	sxtb	r3, r3
 80016b8:	089b      	lsrs	r3, r3, #2
 80016ba:	430a      	orrs	r2, r1
 80016bc:	33c0      	adds	r3, #192	@ 0xc0
 80016be:	009b      	lsls	r3, r3, #2
 80016c0:	501a      	str	r2, [r3, r0]
 80016c2:	e031      	b.n	8001728 <__NVIC_SetPriority+0xcc>
 80016c4:	4a1b      	ldr	r2, [pc, #108]	@ (8001734 <__NVIC_SetPriority+0xd8>)
 80016c6:	1dfb      	adds	r3, r7, #7
 80016c8:	781b      	ldrb	r3, [r3, #0]
 80016ca:	0019      	movs	r1, r3
 80016cc:	230f      	movs	r3, #15
 80016ce:	400b      	ands	r3, r1
 80016d0:	3b08      	subs	r3, #8
 80016d2:	089b      	lsrs	r3, r3, #2
 80016d4:	3306      	adds	r3, #6
 80016d6:	009b      	lsls	r3, r3, #2
 80016d8:	18d3      	adds	r3, r2, r3
 80016da:	3304      	adds	r3, #4
 80016dc:	681b      	ldr	r3, [r3, #0]
 80016de:	1dfa      	adds	r2, r7, #7
 80016e0:	7812      	ldrb	r2, [r2, #0]
 80016e2:	0011      	movs	r1, r2
 80016e4:	2203      	movs	r2, #3
 80016e6:	400a      	ands	r2, r1
 80016e8:	00d2      	lsls	r2, r2, #3
 80016ea:	21ff      	movs	r1, #255	@ 0xff
 80016ec:	4091      	lsls	r1, r2
 80016ee:	000a      	movs	r2, r1
 80016f0:	43d2      	mvns	r2, r2
 80016f2:	401a      	ands	r2, r3
 80016f4:	0011      	movs	r1, r2
 80016f6:	683b      	ldr	r3, [r7, #0]
 80016f8:	019b      	lsls	r3, r3, #6
 80016fa:	22ff      	movs	r2, #255	@ 0xff
 80016fc:	401a      	ands	r2, r3
 80016fe:	1dfb      	adds	r3, r7, #7
 8001700:	781b      	ldrb	r3, [r3, #0]
 8001702:	0018      	movs	r0, r3
 8001704:	2303      	movs	r3, #3
 8001706:	4003      	ands	r3, r0
 8001708:	00db      	lsls	r3, r3, #3
 800170a:	409a      	lsls	r2, r3
 800170c:	4809      	ldr	r0, [pc, #36]	@ (8001734 <__NVIC_SetPriority+0xd8>)
 800170e:	1dfb      	adds	r3, r7, #7
 8001710:	781b      	ldrb	r3, [r3, #0]
 8001712:	001c      	movs	r4, r3
 8001714:	230f      	movs	r3, #15
 8001716:	4023      	ands	r3, r4
 8001718:	3b08      	subs	r3, #8
 800171a:	089b      	lsrs	r3, r3, #2
 800171c:	430a      	orrs	r2, r1
 800171e:	3306      	adds	r3, #6
 8001720:	009b      	lsls	r3, r3, #2
 8001722:	18c3      	adds	r3, r0, r3
 8001724:	3304      	adds	r3, #4
 8001726:	601a      	str	r2, [r3, #0]
 8001728:	46c0      	nop			@ (mov r8, r8)
 800172a:	46bd      	mov	sp, r7
 800172c:	b003      	add	sp, #12
 800172e:	bd90      	pop	{r4, r7, pc}
 8001730:	e000e100 	.word	0xe000e100
 8001734:	e000ed00 	.word	0xe000ed00

08001738 <SysTick_Config>:
 8001738:	b580      	push	{r7, lr}
 800173a:	b082      	sub	sp, #8
 800173c:	af00      	add	r7, sp, #0
 800173e:	6078      	str	r0, [r7, #4]
 8001740:	687b      	ldr	r3, [r7, #4]
 8001742:	1e5a      	subs	r2, r3, #1
 8001744:	2380      	movs	r3, #128	@ 0x80
 8001746:	045b      	lsls	r3, r3, #17
 8001748:	429a      	cmp	r2, r3
 800174a:	d301      	bcc.n	8001750 <SysTick_Config+0x18>
 800174c:	2301      	movs	r3, #1
 800174e:	e010      	b.n	8001772 <SysTick_Config+0x3a>
 8001750:	4b0a      	ldr	r3, [pc, #40]	@ (800177c <SysTick_Config+0x44>)
 8001752:	687a      	ldr	r2, [r7, #4]
 8001754:	3a01      	subs	r2, #1
 8001756:	605a      	str	r2, [r3, #4]
 8001758:	2301      	movs	r3, #1
 800175a:	425b      	negs	r3, r3
 800175c:	2103      	movs	r1, #3
 800175e:	0018      	movs	r0, r3
 8001760:	f7ff ff7c 	bl	800165c <__NVIC_SetPriority>
 8001764:	4b05      	ldr	r3, [pc, #20]	@ (800177c <SysTick_Config+0x44>)
 8001766:	2200      	movs	r2, #0
 8001768:	609a      	str	r2, [r3, #8]
 800176a:	4b04      	ldr	r3, [pc, #16]	@ (800177c <SysTick_Config+0x44>)
 800176c:	2207      	movs	r2, #7
 800176e:	601a      	str	r2, [r3, #0]
 8001770:	2300      	movs	r3, #0
 8001772:	0018      	movs	r0, r3
 8001774:	46bd      	mov	sp, r7
 8001776:	b002      	add	sp, #8
 8001778:	bd80      	pop	{r7, pc}
 800177a:	46c0      	nop			@ (mov r8, r8)
 800177c:	e000e010 	.word	0xe000e010

08001780 <HAL_NVIC_SetPriority>:
 8001780:	b580      	push	{r7, lr}
 8001782:	b084      	sub	sp, #16
 8001784:	af00      	add	r7, sp, #0
 8001786:	60b9      	str	r1, [r7, #8]
 8001788:	607a      	str	r2, [r7, #4]
 800178a:	210f      	movs	r1, #15
 800178c:	187b      	adds	r3, r7, r1
 800178e:	1c02      	adds	r2, r0, #0
 8001790:	701a      	strb	r2, [r3, #0]
 8001792:	68ba      	ldr	r2, [r7, #8]
 8001794:	187b      	adds	r3, r7, r1
 8001796:	781b      	ldrb	r3, [r3, #0]
 8001798:	b25b      	sxtb	r3, r3
 800179a:	0011      	movs	r1, r2
 800179c:	0018      	movs	r0, r3
 800179e:	f7ff ff5d 	bl	800165c <__NVIC_SetPriority>
 80017a2:	46c0      	nop			@ (mov r8, r8)
 80017a4:	46bd      	mov	sp, r7
 80017a6:	b004      	add	sp, #16
 80017a8:	bd80      	pop	{r7, pc}

080017aa <HAL_NVIC_EnableIRQ>:
 80017aa:	b580      	push	{r7, lr}
 80017ac:	b082      	sub	sp, #8
 80017ae:	af00      	add	r7, sp, #0
 80017b0:	0002      	movs	r2, r0
 80017b2:	1dfb      	adds	r3, r7, #7
 80017b4:	701a      	strb	r2, [r3, #0]
 80017b6:	1dfb      	adds	r3, r7, #7
 80017b8:	781b      	ldrb	r3, [r3, #0]
 80017ba:	b25b      	sxtb	r3, r3
 80017bc:	0018      	movs	r0, r3
 80017be:	f7ff ff33 	bl	8001628 <__NVIC_EnableIRQ>
 80017c2:	46c0      	nop			@ (mov r8, r8)
 80017c4:	46bd      	mov	sp, r7
 80017c6:	b002      	add	sp, #8
 80017c8:	bd80      	pop	{r7, pc}

080017ca <HAL_SYSTICK_Config>:
 80017ca:	b580      	push	{r7, lr}
 80017cc:	b082      	sub	sp, #8
 80017ce:	af00      	add	r7, sp, #0
 80017d0:	6078      	str	r0, [r7, #4]
 80017d2:	687b      	ldr	r3, [r7, #4]
 80017d4:	0018      	movs	r0, r3
 80017d6:	f7ff ffaf 	bl	8001738 <SysTick_Config>
 80017da:	0003      	movs	r3, r0
 80017dc:	0018      	movs	r0, r3
 80017de:	46bd      	mov	sp, r7
 80017e0:	b002      	add	sp, #8
 80017e2:	bd80      	pop	{r7, pc}

080017e4 <HAL_GPIO_Init>:
 80017e4:	b580      	push	{r7, lr}
 80017e6:	b086      	sub	sp, #24
 80017e8:	af00      	add	r7, sp, #0
 80017ea:	6078      	str	r0, [r7, #4]
 80017ec:	6039      	str	r1, [r7, #0]
 80017ee:	2300      	movs	r3, #0
 80017f0:	613b      	str	r3, [r7, #16]
 80017f2:	e153      	b.n	8001a9c <HAL_GPIO_Init+0x2b8>
 80017f4:	683b      	ldr	r3, [r7, #0]
 80017f6:	681b      	ldr	r3, [r3, #0]
 80017f8:	2101      	movs	r1, #1
 80017fa:	693a      	ldr	r2, [r7, #16]
 80017fc:	4091      	lsls	r1, r2
 80017fe:	000a      	movs	r2, r1
 8001800:	4013      	ands	r3, r2
 8001802:	60fb      	str	r3, [r7, #12]
 8001804:	68fb      	ldr	r3, [r7, #12]
 8001806:	2b00      	cmp	r3, #0
 8001808:	d100      	bne.n	800180c <HAL_GPIO_Init+0x28>
 800180a:	e144      	b.n	8001a96 <HAL_GPIO_Init+0x2b2>
 800180c:	683b      	ldr	r3, [r7, #0]
 800180e:	685b      	ldr	r3, [r3, #4]
 8001810:	2b02      	cmp	r3, #2
 8001812:	d003      	beq.n	800181c <HAL_GPIO_Init+0x38>
 8001814:	683b      	ldr	r3, [r7, #0]
 8001816:	685b      	ldr	r3, [r3, #4]
 8001818:	2b12      	cmp	r3, #18
 800181a:	d125      	bne.n	8001868 <HAL_GPIO_Init+0x84>
 800181c:	693b      	ldr	r3, [r7, #16]
 800181e:	08da      	lsrs	r2, r3, #3
 8001820:	687b      	ldr	r3, [r7, #4]
 8001822:	3208      	adds	r2, #8
 8001824:	0092      	lsls	r2, r2, #2
 8001826:	58d3      	ldr	r3, [r2, r3]
 8001828:	617b      	str	r3, [r7, #20]
 800182a:	693b      	ldr	r3, [r7, #16]
 800182c:	2207      	movs	r2, #7
 800182e:	4013      	ands	r3, r2
 8001830:	009b      	lsls	r3, r3, #2
 8001832:	220f      	movs	r2, #15
 8001834:	409a      	lsls	r2, r3
 8001836:	0013      	movs	r3, r2
 8001838:	43da      	mvns	r2, r3
 800183a:	697b      	ldr	r3, [r7, #20]
 800183c:	4013      	ands	r3, r2
 800183e:	617b      	str	r3, [r7, #20]
 8001840:	683b      	ldr	r3, [r7, #0]
 8001842:	691b      	ldr	r3, [r3, #16]
 8001844:	220f      	movs	r2, #15
 8001846:	401a      	ands	r2, r3
 8001848:	693b      	ldr	r3, [r7, #16]
 800184a:	2107      	movs	r1, #7
 800184c:	400b      	ands	r3, r1
 800184e:	009b      	lsls	r3, r3, #2
 8001850:	409a      	lsls	r2, r3
 8001852:	0013      	movs	r3, r2
 8001854:	697a      	ldr	r2, [r7, #20]
 8001856:	4313      	orrs	r3, r2
 8001858:	617b      	str	r3, [r7, #20]
 800185a:	693b      	ldr	r3, [r7, #16]
 800185c:	08da      	lsrs	r2, r3, #3
 800185e:	687b      	ldr	r3, [r7, #4]
 8001860:	3208      	adds	r2, #8
 8001862:	0092      	lsls	r2, r2, #2
 8001864:	6979      	ldr	r1, [r7, #20]
 8001866:	50d1      	str	r1, [r2, r3]
 8001868:	687b      	ldr	r3, [r7, #4]
 800186a:	681b      	ldr	r3, [r3, #0]
 800186c:	617b      	str	r3, [r7, #20]
 800186e:	693b      	ldr	r3, [r7, #16]
 8001870:	005b      	lsls	r3, r3, #1
 8001872:	2203      	movs	r2, #3
 8001874:	409a      	lsls	r2, r3
 8001876:	0013      	movs	r3, r2
 8001878:	43da      	mvns	r2, r3
 800187a:	697b      	ldr	r3, [r7, #20]
 800187c:	4013      	ands	r3, r2
 800187e:	617b      	str	r3, [r7, #20]
 8001880:	683b      	ldr	r3, [r7, #0]
 8001882:	685b      	ldr	r3, [r3, #4]
 8001884:	2203      	movs	r2, #3
 8001886:	401a      	ands	r2, r3
 8001888:	693b      	ldr	r3, [r7, #16]
 800188a:	005b      	lsls	r3, r3, #1
 800188c:	409a      	lsls	r2, r3
 800188e:	0013      	movs	r3, r2
 8001890:	697a      	ldr	r2, [r7, #20]
 8001892:	4313      	orrs	r3, r2
 8001894:	617b      	str	r3, [r7, #20]
 8001896:	687b      	ldr	r3, [r7, #4]
 8001898:	697a      	ldr	r2, [r7, #20]
 800189a:	601a      	str	r2, [r3, #0]
 800189c:	683b      	ldr	r3, [r7, #0]
 800189e:	685b      	ldr	r3, [r3, #4]
 80018a0:	2b01      	cmp	r3, #1
 80018a2:	d00b      	beq.n	80018bc <HAL_GPIO_Init+0xd8>
 80018a4:	683b      	ldr	r3, [r7, #0]
 80018a6:	685b      	ldr	r3, [r3, #4]
 80018a8:	2b02      	cmp	r3, #2
 80018aa:	d007      	beq.n	80018bc <HAL_GPIO_Init+0xd8>
 80018ac:	683b      	ldr	r3, [r7, #0]
 80018ae:	685b      	ldr	r3, [r3, #4]
 80018b0:	2b11      	cmp	r3, #17
 80018b2:	d003      	beq.n	80018bc <HAL_GPIO_Init+0xd8>
 80018b4:	683b      	ldr	r3, [r7, #0]
 80018b6:	685b      	ldr	r3, [r3, #4]
 80018b8:	2b12      	cmp	r3, #18
 80018ba:	d130      	bne.n	800191e <HAL_GPIO_Init+0x13a>
 80018bc:	687b      	ldr	r3, [r7, #4]
 80018be:	689b      	ldr	r3, [r3, #8]
 80018c0:	617b      	str	r3, [r7, #20]
 80018c2:	693b      	ldr	r3, [r7, #16]
 80018c4:	005b      	lsls	r3, r3, #1
 80018c6:	2203      	movs	r2, #3
 80018c8:	409a      	lsls	r2, r3
 80018ca:	0013      	movs	r3, r2
 80018cc:	43da      	mvns	r2, r3
 80018ce:	697b      	ldr	r3, [r7, #20]
 80018d0:	4013      	ands	r3, r2
 80018d2:	617b      	str	r3, [r7, #20]
 80018d4:	683b      	ldr	r3, [r7, #0]
 80018d6:	68da      	ldr	r2, [r3, #12]
 80018d8:	693b      	ldr	r3, [r7, #16]
 80018da:	005b      	lsls	r3, r3, #1
 80018dc:	409a      	lsls	r2, r3
 80018de:	0013      	movs	r3, r2
 80018e0:	697a      	ldr	r2, [r7, #20]
 80018e2:	4313      	orrs	r3, r2
 80018e4:	617b      	str	r3, [r7, #20]
 80018e6:	687b      	ldr	r3, [r7, #4]
 80018e8:	697a      	ldr	r2, [r7, #20]
 80018ea:	609a      	str	r2, [r3, #8]
 80018ec:	687b      	ldr	r3, [r7, #4]
 80018ee:	685b      	ldr	r3, [r3, #4]
 80018f0:	617b      	str	r3, [r7, #20]
 80018f2:	2201      	movs	r2, #1
 80018f4:	693b      	ldr	r3, [r7, #16]
 80018f6:	409a      	lsls	r2, r3
 80018f8:	0013      	movs	r3, r2
 80018fa:	43da      	mvns	r2, r3
 80018fc:	697b      	ldr	r3, [r7, #20]
 80018fe:	4013      	ands	r3, r2
 8001900:	617b      	str	r3, [r7, #20]
 8001902:	683b      	ldr	r3, [r7, #0]
 8001904:	685b      	ldr	r3, [r3, #4]
 8001906:	091b      	lsrs	r3, r3, #4
 8001908:	2201      	movs	r2, #1
 800190a:	401a      	ands	r2, r3
 800190c:	693b      	ldr	r3, [r7, #16]
 800190e:	409a      	lsls	r2, r3
 8001910:	0013      	movs	r3, r2
 8001912:	697a      	ldr	r2, [r7, #20]
 8001914:	4313      	orrs	r3, r2
 8001916:	617b      	str	r3, [r7, #20]
 8001918:	687b      	ldr	r3, [r7, #4]
 800191a:	697a      	ldr	r2, [r7, #20]
 800191c:	605a      	str	r2, [r3, #4]
 800191e:	683b      	ldr	r3, [r7, #0]
 8001920:	685b      	ldr	r3, [r3, #4]
 8001922:	2b03      	cmp	r3, #3
 8001924:	d017      	beq.n	8001956 <HAL_GPIO_Init+0x172>
 8001926:	687b      	ldr	r3, [r7, #4]
 8001928:	68db      	ldr	r3, [r3, #12]
 800192a:	617b      	str	r3, [r7, #20]
 800192c:	693b      	ldr	r3, [r7, #16]
 800192e:	005b      	lsls	r3, r3, #1
 8001930:	2203      	movs	r2, #3
 8001932:	409a      	lsls	r2, r3
 8001934:	0013      	movs	r3, r2
 8001936:	43da      	mvns	r2, r3
 8001938:	697b      	ldr	r3, [r7, #20]
 800193a:	4013      	ands	r3, r2
 800193c:	617b      	str	r3, [r7, #20]
 800193e:	683b      	ldr	r3, [r7, #0]
 8001940:	689a      	ldr	r2, [r3, #8]
 8001942:	693b      	ldr	r3, [r7, #16]
 8001944:	005b      	lsls	r3, r3, #1
 8001946:	409a      	lsls	r2, r3
 8001948:	0013      	movs	r3, r2
 800194a:	697a      	ldr	r2, [r7, #20]
 800194c:	4313      	orrs	r3, r2
 800194e:	617b      	str	r3, [r7, #20]
 8001950:	687b      	ldr	r3, [r7, #4]
 8001952:	697a      	ldr	r2, [r7, #20]
 8001954:	60da      	str	r2, [r3, #12]
 8001956:	683b      	ldr	r3, [r7, #0]
 8001958:	685a      	ldr	r2, [r3, #4]
 800195a:	2380      	movs	r3, #128	@ 0x80
 800195c:	055b      	lsls	r3, r3, #21
 800195e:	4013      	ands	r3, r2
 8001960:	d100      	bne.n	8001964 <HAL_GPIO_Init+0x180>
 8001962:	e098      	b.n	8001a96 <HAL_GPIO_Init+0x2b2>
 8001964:	4a53      	ldr	r2, [pc, #332]	@ (8001ab4 <HAL_GPIO_Init+0x2d0>)
 8001966:	693b      	ldr	r3, [r7, #16]
 8001968:	089b      	lsrs	r3, r3, #2
 800196a:	3318      	adds	r3, #24
 800196c:	009b      	lsls	r3, r3, #2
 800196e:	589b      	ldr	r3, [r3, r2]
 8001970:	617b      	str	r3, [r7, #20]
 8001972:	693b      	ldr	r3, [r7, #16]
 8001974:	2203      	movs	r2, #3
 8001976:	4013      	ands	r3, r2
 8001978:	00db      	lsls	r3, r3, #3
 800197a:	220f      	movs	r2, #15
 800197c:	409a      	lsls	r2, r3
 800197e:	0013      	movs	r3, r2
 8001980:	43da      	mvns	r2, r3
 8001982:	697b      	ldr	r3, [r7, #20]
 8001984:	4013      	ands	r3, r2
 8001986:	617b      	str	r3, [r7, #20]
 8001988:	687a      	ldr	r2, [r7, #4]
 800198a:	23a0      	movs	r3, #160	@ 0xa0
 800198c:	05db      	lsls	r3, r3, #23
 800198e:	429a      	cmp	r2, r3
 8001990:	d019      	beq.n	80019c6 <HAL_GPIO_Init+0x1e2>
 8001992:	687b      	ldr	r3, [r7, #4]
 8001994:	4a48      	ldr	r2, [pc, #288]	@ (8001ab8 <HAL_GPIO_Init+0x2d4>)
 8001996:	4293      	cmp	r3, r2
 8001998:	d013      	beq.n	80019c2 <HAL_GPIO_Init+0x1de>
 800199a:	687b      	ldr	r3, [r7, #4]
 800199c:	4a47      	ldr	r2, [pc, #284]	@ (8001abc <HAL_GPIO_Init+0x2d8>)
 800199e:	4293      	cmp	r3, r2
 80019a0:	d00d      	beq.n	80019be <HAL_GPIO_Init+0x1da>
 80019a2:	687b      	ldr	r3, [r7, #4]
 80019a4:	4a46      	ldr	r2, [pc, #280]	@ (8001ac0 <HAL_GPIO_Init+0x2dc>)
 80019a6:	4293      	cmp	r3, r2
 80019a8:	d007      	beq.n	80019ba <HAL_GPIO_Init+0x1d6>
 80019aa:	687b      	ldr	r3, [r7, #4]
 80019ac:	4a45      	ldr	r2, [pc, #276]	@ (8001ac4 <HAL_GPIO_Init+0x2e0>)
 80019ae:	4293      	cmp	r3, r2
 80019b0:	d101      	bne.n	80019b6 <HAL_GPIO_Init+0x1d2>
 80019b2:	2305      	movs	r3, #5
 80019b4:	e008      	b.n	80019c8 <HAL_GPIO_Init+0x1e4>
 80019b6:	2306      	movs	r3, #6
 80019b8:	e006      	b.n	80019c8 <HAL_GPIO_Init+0x1e4>
 80019ba:	2303      	movs	r3, #3
 80019bc:	e004      	b.n	80019c8 <HAL_GPIO_Init+0x1e4>
 80019be:	2302      	movs	r3, #2
 80019c0:	e002      	b.n	80019c8 <HAL_GPIO_Init+0x1e4>
 80019c2:	2301      	movs	r3, #1
 80019c4:	e000      	b.n	80019c8 <HAL_GPIO_Init+0x1e4>
 80019c6:	2300      	movs	r3, #0
 80019c8:	693a      	ldr	r2, [r7, #16]
 80019ca:	2103      	movs	r1, #3
 80019cc:	400a      	ands	r2, r1
 80019ce:	00d2      	lsls	r2, r2, #3
 80019d0:	4093      	lsls	r3, r2
 80019d2:	697a      	ldr	r2, [r7, #20]
 80019d4:	4313      	orrs	r3, r2
 80019d6:	617b      	str	r3, [r7, #20]
 80019d8:	4936      	ldr	r1, [pc, #216]	@ (8001ab4 <HAL_GPIO_Init+0x2d0>)
 80019da:	693b      	ldr	r3, [r7, #16]
 80019dc:	089b      	lsrs	r3, r3, #2
 80019de:	3318      	adds	r3, #24
 80019e0:	009b      	lsls	r3, r3, #2
 80019e2:	697a      	ldr	r2, [r7, #20]
 80019e4:	505a      	str	r2, [r3, r1]
 80019e6:	4a33      	ldr	r2, [pc, #204]	@ (8001ab4 <HAL_GPIO_Init+0x2d0>)
 80019e8:	2380      	movs	r3, #128	@ 0x80
 80019ea:	58d3      	ldr	r3, [r2, r3]
 80019ec:	617b      	str	r3, [r7, #20]
 80019ee:	68fb      	ldr	r3, [r7, #12]
 80019f0:	43da      	mvns	r2, r3
 80019f2:	697b      	ldr	r3, [r7, #20]
 80019f4:	4013      	ands	r3, r2
 80019f6:	617b      	str	r3, [r7, #20]
 80019f8:	683b      	ldr	r3, [r7, #0]
 80019fa:	685a      	ldr	r2, [r3, #4]
 80019fc:	2380      	movs	r3, #128	@ 0x80
 80019fe:	025b      	lsls	r3, r3, #9
 8001a00:	4013      	ands	r3, r2
 8001a02:	d003      	beq.n	8001a0c <HAL_GPIO_Init+0x228>
 8001a04:	697a      	ldr	r2, [r7, #20]
 8001a06:	68fb      	ldr	r3, [r7, #12]
 8001a08:	4313      	orrs	r3, r2
 8001a0a:	617b      	str	r3, [r7, #20]
 8001a0c:	4929      	ldr	r1, [pc, #164]	@ (8001ab4 <HAL_GPIO_Init+0x2d0>)
 8001a0e:	2280      	movs	r2, #128	@ 0x80
 8001a10:	697b      	ldr	r3, [r7, #20]
 8001a12:	508b      	str	r3, [r1, r2]
 8001a14:	4a27      	ldr	r2, [pc, #156]	@ (8001ab4 <HAL_GPIO_Init+0x2d0>)
 8001a16:	2384      	movs	r3, #132	@ 0x84
 8001a18:	58d3      	ldr	r3, [r2, r3]
 8001a1a:	617b      	str	r3, [r7, #20]
 8001a1c:	68fb      	ldr	r3, [r7, #12]
 8001a1e:	43da      	mvns	r2, r3
 8001a20:	697b      	ldr	r3, [r7, #20]
 8001a22:	4013      	ands	r3, r2
 8001a24:	617b      	str	r3, [r7, #20]
 8001a26:	683b      	ldr	r3, [r7, #0]
 8001a28:	685a      	ldr	r2, [r3, #4]
 8001a2a:	2380      	movs	r3, #128	@ 0x80
 8001a2c:	029b      	lsls	r3, r3, #10
 8001a2e:	4013      	ands	r3, r2
 8001a30:	d003      	beq.n	8001a3a <HAL_GPIO_Init+0x256>
 8001a32:	697a      	ldr	r2, [r7, #20]
 8001a34:	68fb      	ldr	r3, [r7, #12]
 8001a36:	4313      	orrs	r3, r2
 8001a38:	617b      	str	r3, [r7, #20]
 8001a3a:	491e      	ldr	r1, [pc, #120]	@ (8001ab4 <HAL_GPIO_Init+0x2d0>)
 8001a3c:	2284      	movs	r2, #132	@ 0x84
 8001a3e:	697b      	ldr	r3, [r7, #20]
 8001a40:	508b      	str	r3, [r1, r2]
 8001a42:	4b1c      	ldr	r3, [pc, #112]	@ (8001ab4 <HAL_GPIO_Init+0x2d0>)
 8001a44:	681b      	ldr	r3, [r3, #0]
 8001a46:	617b      	str	r3, [r7, #20]
 8001a48:	68fb      	ldr	r3, [r7, #12]
 8001a4a:	43da      	mvns	r2, r3
 8001a4c:	697b      	ldr	r3, [r7, #20]
 8001a4e:	4013      	ands	r3, r2
 8001a50:	617b      	str	r3, [r7, #20]
 8001a52:	683b      	ldr	r3, [r7, #0]
 8001a54:	685a      	ldr	r2, [r3, #4]
 8001a56:	2380      	movs	r3, #128	@ 0x80
 8001a58:	035b      	lsls	r3, r3, #13
 8001a5a:	4013      	ands	r3, r2
 8001a5c:	d003      	beq.n	8001a66 <HAL_GPIO_Init+0x282>
 8001a5e:	697a      	ldr	r2, [r7, #20]
 8001a60:	68fb      	ldr	r3, [r7, #12]
 8001a62:	4313      	orrs	r3, r2
 8001a64:	617b      	str	r3, [r7, #20]
 8001a66:	4b13      	ldr	r3, [pc, #76]	@ (8001ab4 <HAL_GPIO_Init+0x2d0>)
 8001a68:	697a      	ldr	r2, [r7, #20]
 8001a6a:	601a      	str	r2, [r3, #0]
 8001a6c:	4b11      	ldr	r3, [pc, #68]	@ (8001ab4 <HAL_GPIO_Init+0x2d0>)
 8001a6e:	685b      	ldr	r3, [r3, #4]
 8001a70:	617b      	str	r3, [r7, #20]
 8001a72:	68fb      	ldr	r3, [r7, #12]
 8001a74:	43da      	mvns	r2, r3
 8001a76:	697b      	ldr	r3, [r7, #20]
 8001a78:	4013      	ands	r3, r2
 8001a7a:	617b      	str	r3, [r7, #20]
 8001a7c:	683b      	ldr	r3, [r7, #0]
 8001a7e:	685a      	ldr	r2, [r3, #4]
 8001a80:	2380      	movs	r3, #128	@ 0x80
 8001a82:	039b      	lsls	r3, r3, #14
 8001a84:	4013      	ands	r3, r2
 8001a86:	d003      	beq.n	8001a90 <HAL_GPIO_Init+0x2ac>
 8001a88:	697a      	ldr	r2, [r7, #20]
 8001a8a:	68fb      	ldr	r3, [r7, #12]
 8001a8c:	4313      	orrs	r3, r2
 8001a8e:	617b      	str	r3, [r7, #20]
 8001a90:	4b08      	ldr	r3, [pc, #32]	@ (8001ab4 <HAL_GPIO_Init+0x2d0>)
 8001a92:	697a      	ldr	r2, [r7, #20]
 8001a94:	605a      	str	r2, [r3, #4]
 8001a96:	693b      	ldr	r3, [r7, #16]
 8001a98:	3301      	adds	r3, #1
 8001a9a:	613b      	str	r3, [r7, #16]
 8001a9c:	683b      	ldr	r3, [r7, #0]
 8001a9e:	681a      	ldr	r2, [r3, #0]
 8001aa0:	693b      	ldr	r3, [r7, #16]
 8001aa2:	40da      	lsrs	r2, r3
 8001aa4:	1e13      	subs	r3, r2, #0
 8001aa6:	d000      	beq.n	8001aaa <HAL_GPIO_Init+0x2c6>
 8001aa8:	e6a4      	b.n	80017f4 <HAL_GPIO_Init+0x10>
 8001aaa:	46c0      	nop			@ (mov r8, r8)
 8001aac:	46c0      	nop			@ (mov r8, r8)
 8001aae:	46bd      	mov	sp, r7
 8001ab0:	b006      	add	sp, #24
 8001ab2:	bd80      	pop	{r7, pc}
 8001ab4:	40021800 	.word	0x40021800
 8001ab8:	50000400 	.word	0x50000400
 8001abc:	50000800 	.word	0x50000800
 8001ac0:	50000c00 	.word	0x50000c00
 8001ac4:	50001400 	.word	0x50001400

08001ac8 <HAL_GPIO_ReadPin>:
 8001ac8:	b580      	push	{r7, lr}
 8001aca:	b084      	sub	sp, #16
 8001acc:	af00      	add	r7, sp, #0
 8001ace:	6078      	str	r0, [r7, #4]
 8001ad0:	000a      	movs	r2, r1
 8001ad2:	1cbb      	adds	r3, r7, #2
 8001ad4:	801a      	strh	r2, [r3, #0]
 8001ad6:	687b      	ldr	r3, [r7, #4]
 8001ad8:	691b      	ldr	r3, [r3, #16]
 8001ada:	1cba      	adds	r2, r7, #2
 8001adc:	8812      	ldrh	r2, [r2, #0]
 8001ade:	4013      	ands	r3, r2
 8001ae0:	d004      	beq.n	8001aec <HAL_GPIO_ReadPin+0x24>
 8001ae2:	230f      	movs	r3, #15
 8001ae4:	18fb      	adds	r3, r7, r3
 8001ae6:	2201      	movs	r2, #1
 8001ae8:	701a      	strb	r2, [r3, #0]
 8001aea:	e003      	b.n	8001af4 <HAL_GPIO_ReadPin+0x2c>
 8001aec:	230f      	movs	r3, #15
 8001aee:	18fb      	adds	r3, r7, r3
 8001af0:	2200      	movs	r2, #0
 8001af2:	701a      	strb	r2, [r3, #0]
 8001af4:	230f      	movs	r3, #15
 8001af6:	18fb      	adds	r3, r7, r3
 8001af8:	781b      	ldrb	r3, [r3, #0]
 8001afa:	0018      	movs	r0, r3
 8001afc:	46bd      	mov	sp, r7
 8001afe:	b004      	add	sp, #16
 8001b00:	bd80      	pop	{r7, pc}

08001b02 <HAL_GPIO_WritePin>:
 8001b02:	b580      	push	{r7, lr}
 8001b04:	b082      	sub	sp, #8
 8001b06:	af00      	add	r7, sp, #0
 8001b08:	6078      	str	r0, [r7, #4]
 8001b0a:	0008      	movs	r0, r1
 8001b0c:	0011      	movs	r1, r2
 8001b0e:	1cbb      	adds	r3, r7, #2
 8001b10:	1c02      	adds	r2, r0, #0
 8001b12:	801a      	strh	r2, [r3, #0]
 8001b14:	1c7b      	adds	r3, r7, #1
 8001b16:	1c0a      	adds	r2, r1, #0
 8001b18:	701a      	strb	r2, [r3, #0]
 8001b1a:	1c7b      	adds	r3, r7, #1
 8001b1c:	781b      	ldrb	r3, [r3, #0]
 8001b1e:	2b00      	cmp	r3, #0
 8001b20:	d004      	beq.n	8001b2c <HAL_GPIO_WritePin+0x2a>
 8001b22:	1cbb      	adds	r3, r7, #2
 8001b24:	881a      	ldrh	r2, [r3, #0]
 8001b26:	687b      	ldr	r3, [r7, #4]
 8001b28:	619a      	str	r2, [r3, #24]
 8001b2a:	e003      	b.n	8001b34 <HAL_GPIO_WritePin+0x32>
 8001b2c:	1cbb      	adds	r3, r7, #2
 8001b2e:	881a      	ldrh	r2, [r3, #0]
 8001b30:	687b      	ldr	r3, [r7, #4]
 8001b32:	629a      	str	r2, [r3, #40]	@ 0x28
 8001b34:	46c0      	nop			@ (mov r8, r8)
 8001b36:	46bd      	mov	sp, r7
 8001b38:	b002      	add	sp, #8
 8001b3a:	bd80      	pop	{r7, pc}

08001b3c <HAL_GPIO_TogglePin>:
 8001b3c:	b580      	push	{r7, lr}
 8001b3e:	b084      	sub	sp, #16
 8001b40:	af00      	add	r7, sp, #0
 8001b42:	6078      	str	r0, [r7, #4]
 8001b44:	000a      	movs	r2, r1
 8001b46:	1cbb      	adds	r3, r7, #2
 8001b48:	801a      	strh	r2, [r3, #0]
 8001b4a:	687b      	ldr	r3, [r7, #4]
 8001b4c:	695b      	ldr	r3, [r3, #20]
 8001b4e:	60fb      	str	r3, [r7, #12]
 8001b50:	1cbb      	adds	r3, r7, #2
 8001b52:	881b      	ldrh	r3, [r3, #0]
 8001b54:	68fa      	ldr	r2, [r7, #12]
 8001b56:	4013      	ands	r3, r2
 8001b58:	041a      	lsls	r2, r3, #16
 8001b5a:	68fb      	ldr	r3, [r7, #12]
 8001b5c:	43db      	mvns	r3, r3
 8001b5e:	1cb9      	adds	r1, r7, #2
 8001b60:	8809      	ldrh	r1, [r1, #0]
 8001b62:	400b      	ands	r3, r1
 8001b64:	431a      	orrs	r2, r3
 8001b66:	687b      	ldr	r3, [r7, #4]
 8001b68:	619a      	str	r2, [r3, #24]
 8001b6a:	46c0      	nop			@ (mov r8, r8)
 8001b6c:	46bd      	mov	sp, r7
 8001b6e:	b004      	add	sp, #16
 8001b70:	bd80      	pop	{r7, pc}
	...

08001b74 <HAL_GPIO_EXTI_IRQHandler>:
 8001b74:	b580      	push	{r7, lr}
 8001b76:	b082      	sub	sp, #8
 8001b78:	af00      	add	r7, sp, #0
 8001b7a:	0002      	movs	r2, r0
 8001b7c:	1dbb      	adds	r3, r7, #6
 8001b7e:	801a      	strh	r2, [r3, #0]
 8001b80:	4b10      	ldr	r3, [pc, #64]	@ (8001bc4 <HAL_GPIO_EXTI_IRQHandler+0x50>)
 8001b82:	68db      	ldr	r3, [r3, #12]
 8001b84:	1dba      	adds	r2, r7, #6
 8001b86:	8812      	ldrh	r2, [r2, #0]
 8001b88:	4013      	ands	r3, r2
 8001b8a:	d008      	beq.n	8001b9e <HAL_GPIO_EXTI_IRQHandler+0x2a>
 8001b8c:	4b0d      	ldr	r3, [pc, #52]	@ (8001bc4 <HAL_GPIO_EXTI_IRQHandler+0x50>)
 8001b8e:	1dba      	adds	r2, r7, #6
 8001b90:	8812      	ldrh	r2, [r2, #0]
 8001b92:	60da      	str	r2, [r3, #12]
 8001b94:	1dbb      	adds	r3, r7, #6
 8001b96:	881b      	ldrh	r3, [r3, #0]
 8001b98:	0018      	movs	r0, r3
 8001b9a:	f000 f815 	bl	8001bc8 <HAL_GPIO_EXTI_Rising_Callback>
 8001b9e:	4b09      	ldr	r3, [pc, #36]	@ (8001bc4 <HAL_GPIO_EXTI_IRQHandler+0x50>)
 8001ba0:	691b      	ldr	r3, [r3, #16]
 8001ba2:	1dba      	adds	r2, r7, #6
 8001ba4:	8812      	ldrh	r2, [r2, #0]
 8001ba6:	4013      	ands	r3, r2
 8001ba8:	d008      	beq.n	8001bbc <HAL_GPIO_EXTI_IRQHandler+0x48>
 8001baa:	4b06      	ldr	r3, [pc, #24]	@ (8001bc4 <HAL_GPIO_EXTI_IRQHandler+0x50>)
 8001bac:	1dba      	adds	r2, r7, #6
 8001bae:	8812      	ldrh	r2, [r2, #0]
 8001bb0:	611a      	str	r2, [r3, #16]
 8001bb2:	1dbb      	adds	r3, r7, #6
 8001bb4:	881b      	ldrh	r3, [r3, #0]
 8001bb6:	0018      	movs	r0, r3
 8001bb8:	f000 f810 	bl	8001bdc <HAL_GPIO_EXTI_Falling_Callback>
 8001bbc:	46c0      	nop			@ (mov r8, r8)
 8001bbe:	46bd      	mov	sp, r7
 8001bc0:	b002      	add	sp, #8
 8001bc2:	bd80      	pop	{r7, pc}
 8001bc4:	40021800 	.word	0x40021800

08001bc8 <HAL_GPIO_EXTI_Rising_Callback>:
 8001bc8:	b580      	push	{r7, lr}
 8001bca:	b082      	sub	sp, #8
 8001bcc:	af00      	add	r7, sp, #0
 8001bce:	0002      	movs	r2, r0
 8001bd0:	1dbb      	adds	r3, r7, #6
 8001bd2:	801a      	strh	r2, [r3, #0]
 8001bd4:	46c0      	nop			@ (mov r8, r8)
 8001bd6:	46bd      	mov	sp, r7
 8001bd8:	b002      	add	sp, #8
 8001bda:	bd80      	pop	{r7, pc}

08001bdc <HAL_GPIO_EXTI_Falling_Callback>:
 8001bdc:	b580      	push	{r7, lr}
 8001bde:	b082      	sub	sp, #8
 8001be0:	af00      	add	r7, sp, #0
 8001be2:	0002      	movs	r2, r0
 8001be4:	1dbb      	adds	r3, r7, #6
 8001be6:	801a      	strh	r2, [r3, #0]
 8001be8:	46c0      	nop			@ (mov r8, r8)
 8001bea:	46bd      	mov	sp, r7
 8001bec:	b002      	add	sp, #8
 8001bee:	bd80      	pop	{r7, pc}

08001bf0 <HAL_RCC_OscConfig>:
 8001bf0:	b580      	push	{r7, lr}
 8001bf2:	b086      	sub	sp, #24
 8001bf4:	af00      	add	r7, sp, #0
 8001bf6:	6078      	str	r0, [r7, #4]
 8001bf8:	687b      	ldr	r3, [r7, #4]
 8001bfa:	2b00      	cmp	r3, #0
 8001bfc:	d101      	bne.n	8001c02 <HAL_RCC_OscConfig+0x12>
 8001bfe:	2301      	movs	r3, #1
 8001c00:	e1d0      	b.n	8001fa4 <HAL_RCC_OscConfig+0x3b4>
 8001c02:	687b      	ldr	r3, [r7, #4]
 8001c04:	681b      	ldr	r3, [r3, #0]
 8001c06:	2201      	movs	r2, #1
 8001c08:	4013      	ands	r3, r2
 8001c0a:	d100      	bne.n	8001c0e <HAL_RCC_OscConfig+0x1e>
 8001c0c:	e069      	b.n	8001ce2 <HAL_RCC_OscConfig+0xf2>
 8001c0e:	4bc8      	ldr	r3, [pc, #800]	@ (8001f30 <HAL_RCC_OscConfig+0x340>)
 8001c10:	689b      	ldr	r3, [r3, #8]
 8001c12:	2238      	movs	r2, #56	@ 0x38
 8001c14:	4013      	ands	r3, r2
 8001c16:	617b      	str	r3, [r7, #20]
 8001c18:	697b      	ldr	r3, [r7, #20]
 8001c1a:	2b08      	cmp	r3, #8
 8001c1c:	d105      	bne.n	8001c2a <HAL_RCC_OscConfig+0x3a>
 8001c1e:	687b      	ldr	r3, [r7, #4]
 8001c20:	685b      	ldr	r3, [r3, #4]
 8001c22:	2b00      	cmp	r3, #0
 8001c24:	d15d      	bne.n	8001ce2 <HAL_RCC_OscConfig+0xf2>
 8001c26:	2301      	movs	r3, #1
 8001c28:	e1bc      	b.n	8001fa4 <HAL_RCC_OscConfig+0x3b4>
 8001c2a:	687b      	ldr	r3, [r7, #4]
 8001c2c:	685a      	ldr	r2, [r3, #4]
 8001c2e:	2380      	movs	r3, #128	@ 0x80
 8001c30:	025b      	lsls	r3, r3, #9
 8001c32:	429a      	cmp	r2, r3
 8001c34:	d107      	bne.n	8001c46 <HAL_RCC_OscConfig+0x56>
 8001c36:	4bbe      	ldr	r3, [pc, #760]	@ (8001f30 <HAL_RCC_OscConfig+0x340>)
 8001c38:	681a      	ldr	r2, [r3, #0]
 8001c3a:	4bbd      	ldr	r3, [pc, #756]	@ (8001f30 <HAL_RCC_OscConfig+0x340>)
 8001c3c:	2180      	movs	r1, #128	@ 0x80
 8001c3e:	0249      	lsls	r1, r1, #9
 8001c40:	430a      	orrs	r2, r1
 8001c42:	601a      	str	r2, [r3, #0]
 8001c44:	e020      	b.n	8001c88 <HAL_RCC_OscConfig+0x98>
 8001c46:	687b      	ldr	r3, [r7, #4]
 8001c48:	685a      	ldr	r2, [r3, #4]
 8001c4a:	23a0      	movs	r3, #160	@ 0xa0
 8001c4c:	02db      	lsls	r3, r3, #11
 8001c4e:	429a      	cmp	r2, r3
 8001c50:	d10e      	bne.n	8001c70 <HAL_RCC_OscConfig+0x80>
 8001c52:	4bb7      	ldr	r3, [pc, #732]	@ (8001f30 <HAL_RCC_OscConfig+0x340>)
 8001c54:	681a      	ldr	r2, [r3, #0]
 8001c56:	4bb6      	ldr	r3, [pc, #728]	@ (8001f30 <HAL_RCC_OscConfig+0x340>)
 8001c58:	2180      	movs	r1, #128	@ 0x80
 8001c5a:	02c9      	lsls	r1, r1, #11
 8001c5c:	430a      	orrs	r2, r1
 8001c5e:	601a      	str	r2, [r3, #0]
 8001c60:	4bb3      	ldr	r3, [pc, #716]	@ (8001f30 <HAL_RCC_OscConfig+0x340>)
 8001c62:	681a      	ldr	r2, [r3, #0]
 8001c64:	4bb2      	ldr	r3, [pc, #712]	@ (8001f30 <HAL_RCC_OscConfig+0x340>)
 8001c66:	2180      	movs	r1, #128	@ 0x80
 8001c68:	0249      	lsls	r1, r1, #9
 8001c6a:	430a      	orrs	r2, r1
 8001c6c:	601a      	str	r2, [r3, #0]
 8001c6e:	e00b      	b.n	8001c88 <HAL_RCC_OscConfig+0x98>
 8001c70:	4baf      	ldr	r3, [pc, #700]	@ (8001f30 <HAL_RCC_OscConfig+0x340>)
 8001c72:	681a      	ldr	r2, [r3, #0]
 8001c74:	4bae      	ldr	r3, [pc, #696]	@ (8001f30 <HAL_RCC_OscConfig+0x340>)
 8001c76:	49af      	ldr	r1, [pc, #700]	@ (8001f34 <HAL_RCC_OscConfig+0x344>)
 8001c78:	400a      	ands	r2, r1
 8001c7a:	601a      	str	r2, [r3, #0]
 8001c7c:	4bac      	ldr	r3, [pc, #688]	@ (8001f30 <HAL_RCC_OscConfig+0x340>)
 8001c7e:	681a      	ldr	r2, [r3, #0]
 8001c80:	4bab      	ldr	r3, [pc, #684]	@ (8001f30 <HAL_RCC_OscConfig+0x340>)
 8001c82:	49ad      	ldr	r1, [pc, #692]	@ (8001f38 <HAL_RCC_OscConfig+0x348>)
 8001c84:	400a      	ands	r2, r1
 8001c86:	601a      	str	r2, [r3, #0]
 8001c88:	687b      	ldr	r3, [r7, #4]
 8001c8a:	685b      	ldr	r3, [r3, #4]
 8001c8c:	2b00      	cmp	r3, #0
 8001c8e:	d014      	beq.n	8001cba <HAL_RCC_OscConfig+0xca>
 8001c90:	f7ff fcc0 	bl	8001614 <HAL_GetTick>
 8001c94:	0003      	movs	r3, r0
 8001c96:	613b      	str	r3, [r7, #16]
 8001c98:	e008      	b.n	8001cac <HAL_RCC_OscConfig+0xbc>
 8001c9a:	f7ff fcbb 	bl	8001614 <HAL_GetTick>
 8001c9e:	0002      	movs	r2, r0
 8001ca0:	693b      	ldr	r3, [r7, #16]
 8001ca2:	1ad3      	subs	r3, r2, r3
 8001ca4:	2b64      	cmp	r3, #100	@ 0x64
 8001ca6:	d901      	bls.n	8001cac <HAL_RCC_OscConfig+0xbc>
 8001ca8:	2303      	movs	r3, #3
 8001caa:	e17b      	b.n	8001fa4 <HAL_RCC_OscConfig+0x3b4>
 8001cac:	4ba0      	ldr	r3, [pc, #640]	@ (8001f30 <HAL_RCC_OscConfig+0x340>)
 8001cae:	681a      	ldr	r2, [r3, #0]
 8001cb0:	2380      	movs	r3, #128	@ 0x80
 8001cb2:	029b      	lsls	r3, r3, #10
 8001cb4:	4013      	ands	r3, r2
 8001cb6:	d0f0      	beq.n	8001c9a <HAL_RCC_OscConfig+0xaa>
 8001cb8:	e013      	b.n	8001ce2 <HAL_RCC_OscConfig+0xf2>
 8001cba:	f7ff fcab 	bl	8001614 <HAL_GetTick>
 8001cbe:	0003      	movs	r3, r0
 8001cc0:	613b      	str	r3, [r7, #16]
 8001cc2:	e008      	b.n	8001cd6 <HAL_RCC_OscConfig+0xe6>
 8001cc4:	f7ff fca6 	bl	8001614 <HAL_GetTick>
 8001cc8:	0002      	movs	r2, r0
 8001cca:	693b      	ldr	r3, [r7, #16]
 8001ccc:	1ad3      	subs	r3, r2, r3
 8001cce:	2b64      	cmp	r3, #100	@ 0x64
 8001cd0:	d901      	bls.n	8001cd6 <HAL_RCC_OscConfig+0xe6>
 8001cd2:	2303      	movs	r3, #3
 8001cd4:	e166      	b.n	8001fa4 <HAL_RCC_OscConfig+0x3b4>
 8001cd6:	4b96      	ldr	r3, [pc, #600]	@ (8001f30 <HAL_RCC_OscConfig+0x340>)
 8001cd8:	681a      	ldr	r2, [r3, #0]
 8001cda:	2380      	movs	r3, #128	@ 0x80
 8001cdc:	029b      	lsls	r3, r3, #10
 8001cde:	4013      	ands	r3, r2
 8001ce0:	d1f0      	bne.n	8001cc4 <HAL_RCC_OscConfig+0xd4>
 8001ce2:	687b      	ldr	r3, [r7, #4]
 8001ce4:	681b      	ldr	r3, [r3, #0]
 8001ce6:	2202      	movs	r2, #2
 8001ce8:	4013      	ands	r3, r2
 8001cea:	d100      	bne.n	8001cee <HAL_RCC_OscConfig+0xfe>
 8001cec:	e086      	b.n	8001dfc <HAL_RCC_OscConfig+0x20c>
 8001cee:	4b90      	ldr	r3, [pc, #576]	@ (8001f30 <HAL_RCC_OscConfig+0x340>)
 8001cf0:	689b      	ldr	r3, [r3, #8]
 8001cf2:	2238      	movs	r2, #56	@ 0x38
 8001cf4:	4013      	ands	r3, r2
 8001cf6:	617b      	str	r3, [r7, #20]
 8001cf8:	697b      	ldr	r3, [r7, #20]
 8001cfa:	2b00      	cmp	r3, #0
 8001cfc:	d12f      	bne.n	8001d5e <HAL_RCC_OscConfig+0x16e>
 8001cfe:	687b      	ldr	r3, [r7, #4]
 8001d00:	68db      	ldr	r3, [r3, #12]
 8001d02:	2b00      	cmp	r3, #0
 8001d04:	d101      	bne.n	8001d0a <HAL_RCC_OscConfig+0x11a>
 8001d06:	2301      	movs	r3, #1
 8001d08:	e14c      	b.n	8001fa4 <HAL_RCC_OscConfig+0x3b4>
 8001d0a:	4b89      	ldr	r3, [pc, #548]	@ (8001f30 <HAL_RCC_OscConfig+0x340>)
 8001d0c:	685b      	ldr	r3, [r3, #4]
 8001d0e:	4a8b      	ldr	r2, [pc, #556]	@ (8001f3c <HAL_RCC_OscConfig+0x34c>)
 8001d10:	4013      	ands	r3, r2
 8001d12:	0019      	movs	r1, r3
 8001d14:	687b      	ldr	r3, [r7, #4]
 8001d16:	695b      	ldr	r3, [r3, #20]
 8001d18:	021a      	lsls	r2, r3, #8
 8001d1a:	4b85      	ldr	r3, [pc, #532]	@ (8001f30 <HAL_RCC_OscConfig+0x340>)
 8001d1c:	430a      	orrs	r2, r1
 8001d1e:	605a      	str	r2, [r3, #4]
 8001d20:	697b      	ldr	r3, [r7, #20]
 8001d22:	2b00      	cmp	r3, #0
 8001d24:	d112      	bne.n	8001d4c <HAL_RCC_OscConfig+0x15c>
 8001d26:	4b82      	ldr	r3, [pc, #520]	@ (8001f30 <HAL_RCC_OscConfig+0x340>)
 8001d28:	681b      	ldr	r3, [r3, #0]
 8001d2a:	4a85      	ldr	r2, [pc, #532]	@ (8001f40 <HAL_RCC_OscConfig+0x350>)
 8001d2c:	4013      	ands	r3, r2
 8001d2e:	0019      	movs	r1, r3
 8001d30:	687b      	ldr	r3, [r7, #4]
 8001d32:	691a      	ldr	r2, [r3, #16]
 8001d34:	4b7e      	ldr	r3, [pc, #504]	@ (8001f30 <HAL_RCC_OscConfig+0x340>)
 8001d36:	430a      	orrs	r2, r1
 8001d38:	601a      	str	r2, [r3, #0]
 8001d3a:	4b7d      	ldr	r3, [pc, #500]	@ (8001f30 <HAL_RCC_OscConfig+0x340>)
 8001d3c:	681b      	ldr	r3, [r3, #0]
 8001d3e:	0adb      	lsrs	r3, r3, #11
 8001d40:	2207      	movs	r2, #7
 8001d42:	4013      	ands	r3, r2
 8001d44:	4a7f      	ldr	r2, [pc, #508]	@ (8001f44 <HAL_RCC_OscConfig+0x354>)
 8001d46:	40da      	lsrs	r2, r3
 8001d48:	4b7f      	ldr	r3, [pc, #508]	@ (8001f48 <HAL_RCC_OscConfig+0x358>)
 8001d4a:	601a      	str	r2, [r3, #0]
 8001d4c:	4b7f      	ldr	r3, [pc, #508]	@ (8001f4c <HAL_RCC_OscConfig+0x35c>)
 8001d4e:	681b      	ldr	r3, [r3, #0]
 8001d50:	0018      	movs	r0, r3
 8001d52:	f7ff fc03 	bl	800155c <HAL_InitTick>
 8001d56:	1e03      	subs	r3, r0, #0
 8001d58:	d050      	beq.n	8001dfc <HAL_RCC_OscConfig+0x20c>
 8001d5a:	2301      	movs	r3, #1
 8001d5c:	e122      	b.n	8001fa4 <HAL_RCC_OscConfig+0x3b4>
 8001d5e:	687b      	ldr	r3, [r7, #4]
 8001d60:	68db      	ldr	r3, [r3, #12]
 8001d62:	2b00      	cmp	r3, #0
 8001d64:	d030      	beq.n	8001dc8 <HAL_RCC_OscConfig+0x1d8>
 8001d66:	4b72      	ldr	r3, [pc, #456]	@ (8001f30 <HAL_RCC_OscConfig+0x340>)
 8001d68:	681b      	ldr	r3, [r3, #0]
 8001d6a:	4a75      	ldr	r2, [pc, #468]	@ (8001f40 <HAL_RCC_OscConfig+0x350>)
 8001d6c:	4013      	ands	r3, r2
 8001d6e:	0019      	movs	r1, r3
 8001d70:	687b      	ldr	r3, [r7, #4]
 8001d72:	691a      	ldr	r2, [r3, #16]
 8001d74:	4b6e      	ldr	r3, [pc, #440]	@ (8001f30 <HAL_RCC_OscConfig+0x340>)
 8001d76:	430a      	orrs	r2, r1
 8001d78:	601a      	str	r2, [r3, #0]
 8001d7a:	4b6d      	ldr	r3, [pc, #436]	@ (8001f30 <HAL_RCC_OscConfig+0x340>)
 8001d7c:	681a      	ldr	r2, [r3, #0]
 8001d7e:	4b6c      	ldr	r3, [pc, #432]	@ (8001f30 <HAL_RCC_OscConfig+0x340>)
 8001d80:	2180      	movs	r1, #128	@ 0x80
 8001d82:	0049      	lsls	r1, r1, #1
 8001d84:	430a      	orrs	r2, r1
 8001d86:	601a      	str	r2, [r3, #0]
 8001d88:	f7ff fc44 	bl	8001614 <HAL_GetTick>
 8001d8c:	0003      	movs	r3, r0
 8001d8e:	613b      	str	r3, [r7, #16]
 8001d90:	e008      	b.n	8001da4 <HAL_RCC_OscConfig+0x1b4>
 8001d92:	f7ff fc3f 	bl	8001614 <HAL_GetTick>
 8001d96:	0002      	movs	r2, r0
 8001d98:	693b      	ldr	r3, [r7, #16]
 8001d9a:	1ad3      	subs	r3, r2, r3
 8001d9c:	2b02      	cmp	r3, #2
 8001d9e:	d901      	bls.n	8001da4 <HAL_RCC_OscConfig+0x1b4>
 8001da0:	2303      	movs	r3, #3
 8001da2:	e0ff      	b.n	8001fa4 <HAL_RCC_OscConfig+0x3b4>
 8001da4:	4b62      	ldr	r3, [pc, #392]	@ (8001f30 <HAL_RCC_OscConfig+0x340>)
 8001da6:	681a      	ldr	r2, [r3, #0]
 8001da8:	2380      	movs	r3, #128	@ 0x80
 8001daa:	00db      	lsls	r3, r3, #3
 8001dac:	4013      	ands	r3, r2
 8001dae:	d0f0      	beq.n	8001d92 <HAL_RCC_OscConfig+0x1a2>
 8001db0:	4b5f      	ldr	r3, [pc, #380]	@ (8001f30 <HAL_RCC_OscConfig+0x340>)
 8001db2:	685b      	ldr	r3, [r3, #4]
 8001db4:	4a61      	ldr	r2, [pc, #388]	@ (8001f3c <HAL_RCC_OscConfig+0x34c>)
 8001db6:	4013      	ands	r3, r2
 8001db8:	0019      	movs	r1, r3
 8001dba:	687b      	ldr	r3, [r7, #4]
 8001dbc:	695b      	ldr	r3, [r3, #20]
 8001dbe:	021a      	lsls	r2, r3, #8
 8001dc0:	4b5b      	ldr	r3, [pc, #364]	@ (8001f30 <HAL_RCC_OscConfig+0x340>)
 8001dc2:	430a      	orrs	r2, r1
 8001dc4:	605a      	str	r2, [r3, #4]
 8001dc6:	e019      	b.n	8001dfc <HAL_RCC_OscConfig+0x20c>
 8001dc8:	4b59      	ldr	r3, [pc, #356]	@ (8001f30 <HAL_RCC_OscConfig+0x340>)
 8001dca:	681a      	ldr	r2, [r3, #0]
 8001dcc:	4b58      	ldr	r3, [pc, #352]	@ (8001f30 <HAL_RCC_OscConfig+0x340>)
 8001dce:	4960      	ldr	r1, [pc, #384]	@ (8001f50 <HAL_RCC_OscConfig+0x360>)
 8001dd0:	400a      	ands	r2, r1
 8001dd2:	601a      	str	r2, [r3, #0]
 8001dd4:	f7ff fc1e 	bl	8001614 <HAL_GetTick>
 8001dd8:	0003      	movs	r3, r0
 8001dda:	613b      	str	r3, [r7, #16]
 8001ddc:	e008      	b.n	8001df0 <HAL_RCC_OscConfig+0x200>
 8001dde:	f7ff fc19 	bl	8001614 <HAL_GetTick>
 8001de2:	0002      	movs	r2, r0
 8001de4:	693b      	ldr	r3, [r7, #16]
 8001de6:	1ad3      	subs	r3, r2, r3
 8001de8:	2b02      	cmp	r3, #2
 8001dea:	d901      	bls.n	8001df0 <HAL_RCC_OscConfig+0x200>
 8001dec:	2303      	movs	r3, #3
 8001dee:	e0d9      	b.n	8001fa4 <HAL_RCC_OscConfig+0x3b4>
 8001df0:	4b4f      	ldr	r3, [pc, #316]	@ (8001f30 <HAL_RCC_OscConfig+0x340>)
 8001df2:	681a      	ldr	r2, [r3, #0]
 8001df4:	2380      	movs	r3, #128	@ 0x80
 8001df6:	00db      	lsls	r3, r3, #3
 8001df8:	4013      	ands	r3, r2
 8001dfa:	d1f0      	bne.n	8001dde <HAL_RCC_OscConfig+0x1ee>
 8001dfc:	687b      	ldr	r3, [r7, #4]
 8001dfe:	681b      	ldr	r3, [r3, #0]
 8001e00:	2208      	movs	r2, #8
 8001e02:	4013      	ands	r3, r2
 8001e04:	d042      	beq.n	8001e8c <HAL_RCC_OscConfig+0x29c>
 8001e06:	4b4a      	ldr	r3, [pc, #296]	@ (8001f30 <HAL_RCC_OscConfig+0x340>)
 8001e08:	689b      	ldr	r3, [r3, #8]
 8001e0a:	2238      	movs	r2, #56	@ 0x38
 8001e0c:	4013      	ands	r3, r2
 8001e0e:	2b18      	cmp	r3, #24
 8001e10:	d105      	bne.n	8001e1e <HAL_RCC_OscConfig+0x22e>
 8001e12:	687b      	ldr	r3, [r7, #4]
 8001e14:	699b      	ldr	r3, [r3, #24]
 8001e16:	2b00      	cmp	r3, #0
 8001e18:	d138      	bne.n	8001e8c <HAL_RCC_OscConfig+0x29c>
 8001e1a:	2301      	movs	r3, #1
 8001e1c:	e0c2      	b.n	8001fa4 <HAL_RCC_OscConfig+0x3b4>
 8001e1e:	687b      	ldr	r3, [r7, #4]
 8001e20:	699b      	ldr	r3, [r3, #24]
 8001e22:	2b00      	cmp	r3, #0
 8001e24:	d019      	beq.n	8001e5a <HAL_RCC_OscConfig+0x26a>
 8001e26:	4b42      	ldr	r3, [pc, #264]	@ (8001f30 <HAL_RCC_OscConfig+0x340>)
 8001e28:	6e1a      	ldr	r2, [r3, #96]	@ 0x60
 8001e2a:	4b41      	ldr	r3, [pc, #260]	@ (8001f30 <HAL_RCC_OscConfig+0x340>)
 8001e2c:	2101      	movs	r1, #1
 8001e2e:	430a      	orrs	r2, r1
 8001e30:	661a      	str	r2, [r3, #96]	@ 0x60
 8001e32:	f7ff fbef 	bl	8001614 <HAL_GetTick>
 8001e36:	0003      	movs	r3, r0
 8001e38:	613b      	str	r3, [r7, #16]
 8001e3a:	e008      	b.n	8001e4e <HAL_RCC_OscConfig+0x25e>
 8001e3c:	f7ff fbea 	bl	8001614 <HAL_GetTick>
 8001e40:	0002      	movs	r2, r0
 8001e42:	693b      	ldr	r3, [r7, #16]
 8001e44:	1ad3      	subs	r3, r2, r3
 8001e46:	2b02      	cmp	r3, #2
 8001e48:	d901      	bls.n	8001e4e <HAL_RCC_OscConfig+0x25e>
 8001e4a:	2303      	movs	r3, #3
 8001e4c:	e0aa      	b.n	8001fa4 <HAL_RCC_OscConfig+0x3b4>
 8001e4e:	4b38      	ldr	r3, [pc, #224]	@ (8001f30 <HAL_RCC_OscConfig+0x340>)
 8001e50:	6e1b      	ldr	r3, [r3, #96]	@ 0x60
 8001e52:	2202      	movs	r2, #2
 8001e54:	4013      	ands	r3, r2
 8001e56:	d0f1      	beq.n	8001e3c <HAL_RCC_OscConfig+0x24c>
 8001e58:	e018      	b.n	8001e8c <HAL_RCC_OscConfig+0x29c>
 8001e5a:	4b35      	ldr	r3, [pc, #212]	@ (8001f30 <HAL_RCC_OscConfig+0x340>)
 8001e5c:	6e1a      	ldr	r2, [r3, #96]	@ 0x60
 8001e5e:	4b34      	ldr	r3, [pc, #208]	@ (8001f30 <HAL_RCC_OscConfig+0x340>)
 8001e60:	2101      	movs	r1, #1
 8001e62:	438a      	bics	r2, r1
 8001e64:	661a      	str	r2, [r3, #96]	@ 0x60
 8001e66:	f7ff fbd5 	bl	8001614 <HAL_GetTick>
 8001e6a:	0003      	movs	r3, r0
 8001e6c:	613b      	str	r3, [r7, #16]
 8001e6e:	e008      	b.n	8001e82 <HAL_RCC_OscConfig+0x292>
 8001e70:	f7ff fbd0 	bl	8001614 <HAL_GetTick>
 8001e74:	0002      	movs	r2, r0
 8001e76:	693b      	ldr	r3, [r7, #16]
 8001e78:	1ad3      	subs	r3, r2, r3
 8001e7a:	2b02      	cmp	r3, #2
 8001e7c:	d901      	bls.n	8001e82 <HAL_RCC_OscConfig+0x292>
 8001e7e:	2303      	movs	r3, #3
 8001e80:	e090      	b.n	8001fa4 <HAL_RCC_OscConfig+0x3b4>
 8001e82:	4b2b      	ldr	r3, [pc, #172]	@ (8001f30 <HAL_RCC_OscConfig+0x340>)
 8001e84:	6e1b      	ldr	r3, [r3, #96]	@ 0x60
 8001e86:	2202      	movs	r2, #2
 8001e88:	4013      	ands	r3, r2
 8001e8a:	d1f1      	bne.n	8001e70 <HAL_RCC_OscConfig+0x280>
 8001e8c:	687b      	ldr	r3, [r7, #4]
 8001e8e:	681b      	ldr	r3, [r3, #0]
 8001e90:	2204      	movs	r2, #4
 8001e92:	4013      	ands	r3, r2
 8001e94:	d100      	bne.n	8001e98 <HAL_RCC_OscConfig+0x2a8>
 8001e96:	e084      	b.n	8001fa2 <HAL_RCC_OscConfig+0x3b2>
 8001e98:	230f      	movs	r3, #15
 8001e9a:	18fb      	adds	r3, r7, r3
 8001e9c:	2200      	movs	r2, #0
 8001e9e:	701a      	strb	r2, [r3, #0]
 8001ea0:	4b23      	ldr	r3, [pc, #140]	@ (8001f30 <HAL_RCC_OscConfig+0x340>)
 8001ea2:	689b      	ldr	r3, [r3, #8]
 8001ea4:	2238      	movs	r2, #56	@ 0x38
 8001ea6:	4013      	ands	r3, r2
 8001ea8:	2b20      	cmp	r3, #32
 8001eaa:	d106      	bne.n	8001eba <HAL_RCC_OscConfig+0x2ca>
 8001eac:	687b      	ldr	r3, [r7, #4]
 8001eae:	689b      	ldr	r3, [r3, #8]
 8001eb0:	2b00      	cmp	r3, #0
 8001eb2:	d000      	beq.n	8001eb6 <HAL_RCC_OscConfig+0x2c6>
 8001eb4:	e075      	b.n	8001fa2 <HAL_RCC_OscConfig+0x3b2>
 8001eb6:	2301      	movs	r3, #1
 8001eb8:	e074      	b.n	8001fa4 <HAL_RCC_OscConfig+0x3b4>
 8001eba:	687b      	ldr	r3, [r7, #4]
 8001ebc:	689b      	ldr	r3, [r3, #8]
 8001ebe:	2b01      	cmp	r3, #1
 8001ec0:	d106      	bne.n	8001ed0 <HAL_RCC_OscConfig+0x2e0>
 8001ec2:	4b1b      	ldr	r3, [pc, #108]	@ (8001f30 <HAL_RCC_OscConfig+0x340>)
 8001ec4:	6dda      	ldr	r2, [r3, #92]	@ 0x5c
 8001ec6:	4b1a      	ldr	r3, [pc, #104]	@ (8001f30 <HAL_RCC_OscConfig+0x340>)
 8001ec8:	2101      	movs	r1, #1
 8001eca:	430a      	orrs	r2, r1
 8001ecc:	65da      	str	r2, [r3, #92]	@ 0x5c
 8001ece:	e01c      	b.n	8001f0a <HAL_RCC_OscConfig+0x31a>
 8001ed0:	687b      	ldr	r3, [r7, #4]
 8001ed2:	689b      	ldr	r3, [r3, #8]
 8001ed4:	2b05      	cmp	r3, #5
 8001ed6:	d10c      	bne.n	8001ef2 <HAL_RCC_OscConfig+0x302>
 8001ed8:	4b15      	ldr	r3, [pc, #84]	@ (8001f30 <HAL_RCC_OscConfig+0x340>)
 8001eda:	6dda      	ldr	r2, [r3, #92]	@ 0x5c
 8001edc:	4b14      	ldr	r3, [pc, #80]	@ (8001f30 <HAL_RCC_OscConfig+0x340>)
 8001ede:	2104      	movs	r1, #4
 8001ee0:	430a      	orrs	r2, r1
 8001ee2:	65da      	str	r2, [r3, #92]	@ 0x5c
 8001ee4:	4b12      	ldr	r3, [pc, #72]	@ (8001f30 <HAL_RCC_OscConfig+0x340>)
 8001ee6:	6dda      	ldr	r2, [r3, #92]	@ 0x5c
 8001ee8:	4b11      	ldr	r3, [pc, #68]	@ (8001f30 <HAL_RCC_OscConfig+0x340>)
 8001eea:	2101      	movs	r1, #1
 8001eec:	430a      	orrs	r2, r1
 8001eee:	65da      	str	r2, [r3, #92]	@ 0x5c
 8001ef0:	e00b      	b.n	8001f0a <HAL_RCC_OscConfig+0x31a>
 8001ef2:	4b0f      	ldr	r3, [pc, #60]	@ (8001f30 <HAL_RCC_OscConfig+0x340>)
 8001ef4:	6dda      	ldr	r2, [r3, #92]	@ 0x5c
 8001ef6:	4b0e      	ldr	r3, [pc, #56]	@ (8001f30 <HAL_RCC_OscConfig+0x340>)
 8001ef8:	2101      	movs	r1, #1
 8001efa:	438a      	bics	r2, r1
 8001efc:	65da      	str	r2, [r3, #92]	@ 0x5c
 8001efe:	4b0c      	ldr	r3, [pc, #48]	@ (8001f30 <HAL_RCC_OscConfig+0x340>)
 8001f00:	6dda      	ldr	r2, [r3, #92]	@ 0x5c
 8001f02:	4b0b      	ldr	r3, [pc, #44]	@ (8001f30 <HAL_RCC_OscConfig+0x340>)
 8001f04:	2104      	movs	r1, #4
 8001f06:	438a      	bics	r2, r1
 8001f08:	65da      	str	r2, [r3, #92]	@ 0x5c
 8001f0a:	687b      	ldr	r3, [r7, #4]
 8001f0c:	689b      	ldr	r3, [r3, #8]
 8001f0e:	2b00      	cmp	r3, #0
 8001f10:	d028      	beq.n	8001f64 <HAL_RCC_OscConfig+0x374>
 8001f12:	f7ff fb7f 	bl	8001614 <HAL_GetTick>
 8001f16:	0003      	movs	r3, r0
 8001f18:	613b      	str	r3, [r7, #16]
 8001f1a:	e01d      	b.n	8001f58 <HAL_RCC_OscConfig+0x368>
 8001f1c:	f7ff fb7a 	bl	8001614 <HAL_GetTick>
 8001f20:	0002      	movs	r2, r0
 8001f22:	693b      	ldr	r3, [r7, #16]
 8001f24:	1ad3      	subs	r3, r2, r3
 8001f26:	4a0b      	ldr	r2, [pc, #44]	@ (8001f54 <HAL_RCC_OscConfig+0x364>)
 8001f28:	4293      	cmp	r3, r2
 8001f2a:	d915      	bls.n	8001f58 <HAL_RCC_OscConfig+0x368>
 8001f2c:	2303      	movs	r3, #3
 8001f2e:	e039      	b.n	8001fa4 <HAL_RCC_OscConfig+0x3b4>
 8001f30:	40021000 	.word	0x40021000
 8001f34:	fffeffff 	.word	0xfffeffff
 8001f38:	fffbffff 	.word	0xfffbffff
 8001f3c:	ffff80ff 	.word	0xffff80ff
 8001f40:	ffffc7ff 	.word	0xffffc7ff
 8001f44:	02dc6c00 	.word	0x02dc6c00
 8001f48:	20000020 	.word	0x20000020
 8001f4c:	20000024 	.word	0x20000024
 8001f50:	fffffeff 	.word	0xfffffeff
 8001f54:	00001388 	.word	0x00001388
 8001f58:	4b14      	ldr	r3, [pc, #80]	@ (8001fac <HAL_RCC_OscConfig+0x3bc>)
 8001f5a:	6ddb      	ldr	r3, [r3, #92]	@ 0x5c
 8001f5c:	2202      	movs	r2, #2
 8001f5e:	4013      	ands	r3, r2
 8001f60:	d0dc      	beq.n	8001f1c <HAL_RCC_OscConfig+0x32c>
 8001f62:	e013      	b.n	8001f8c <HAL_RCC_OscConfig+0x39c>
 8001f64:	f7ff fb56 	bl	8001614 <HAL_GetTick>
 8001f68:	0003      	movs	r3, r0
 8001f6a:	613b      	str	r3, [r7, #16]
 8001f6c:	e009      	b.n	8001f82 <HAL_RCC_OscConfig+0x392>
 8001f6e:	f7ff fb51 	bl	8001614 <HAL_GetTick>
 8001f72:	0002      	movs	r2, r0
 8001f74:	693b      	ldr	r3, [r7, #16]
 8001f76:	1ad3      	subs	r3, r2, r3
 8001f78:	4a0d      	ldr	r2, [pc, #52]	@ (8001fb0 <HAL_RCC_OscConfig+0x3c0>)
 8001f7a:	4293      	cmp	r3, r2
 8001f7c:	d901      	bls.n	8001f82 <HAL_RCC_OscConfig+0x392>
 8001f7e:	2303      	movs	r3, #3
 8001f80:	e010      	b.n	8001fa4 <HAL_RCC_OscConfig+0x3b4>
 8001f82:	4b0a      	ldr	r3, [pc, #40]	@ (8001fac <HAL_RCC_OscConfig+0x3bc>)
 8001f84:	6ddb      	ldr	r3, [r3, #92]	@ 0x5c
 8001f86:	2202      	movs	r2, #2
 8001f88:	4013      	ands	r3, r2
 8001f8a:	d1f0      	bne.n	8001f6e <HAL_RCC_OscConfig+0x37e>
 8001f8c:	230f      	movs	r3, #15
 8001f8e:	18fb      	adds	r3, r7, r3
 8001f90:	781b      	ldrb	r3, [r3, #0]
 8001f92:	2b01      	cmp	r3, #1
 8001f94:	d105      	bne.n	8001fa2 <HAL_RCC_OscConfig+0x3b2>
 8001f96:	4b05      	ldr	r3, [pc, #20]	@ (8001fac <HAL_RCC_OscConfig+0x3bc>)
 8001f98:	6bda      	ldr	r2, [r3, #60]	@ 0x3c
 8001f9a:	4b04      	ldr	r3, [pc, #16]	@ (8001fac <HAL_RCC_OscConfig+0x3bc>)
 8001f9c:	4905      	ldr	r1, [pc, #20]	@ (8001fb4 <HAL_RCC_OscConfig+0x3c4>)
 8001f9e:	400a      	ands	r2, r1
 8001fa0:	63da      	str	r2, [r3, #60]	@ 0x3c
 8001fa2:	2300      	movs	r3, #0
 8001fa4:	0018      	movs	r0, r3
 8001fa6:	46bd      	mov	sp, r7
 8001fa8:	b006      	add	sp, #24
 8001faa:	bd80      	pop	{r7, pc}
 8001fac:	40021000 	.word	0x40021000
 8001fb0:	00001388 	.word	0x00001388
 8001fb4:	efffffff 	.word	0xefffffff

08001fb8 <HAL_RCC_ClockConfig>:
 8001fb8:	b580      	push	{r7, lr}
 8001fba:	b084      	sub	sp, #16
 8001fbc:	af00      	add	r7, sp, #0
 8001fbe:	6078      	str	r0, [r7, #4]
 8001fc0:	6039      	str	r1, [r7, #0]
 8001fc2:	687b      	ldr	r3, [r7, #4]
 8001fc4:	2b00      	cmp	r3, #0
 8001fc6:	d101      	bne.n	8001fcc <HAL_RCC_ClockConfig+0x14>
 8001fc8:	2301      	movs	r3, #1
 8001fca:	e0df      	b.n	800218c <HAL_RCC_ClockConfig+0x1d4>
 8001fcc:	4b71      	ldr	r3, [pc, #452]	@ (8002194 <HAL_RCC_ClockConfig+0x1dc>)
 8001fce:	681b      	ldr	r3, [r3, #0]
 8001fd0:	2207      	movs	r2, #7
 8001fd2:	4013      	ands	r3, r2
 8001fd4:	683a      	ldr	r2, [r7, #0]
 8001fd6:	429a      	cmp	r2, r3
 8001fd8:	d91e      	bls.n	8002018 <HAL_RCC_ClockConfig+0x60>
 8001fda:	4b6e      	ldr	r3, [pc, #440]	@ (8002194 <HAL_RCC_ClockConfig+0x1dc>)
 8001fdc:	681b      	ldr	r3, [r3, #0]
 8001fde:	2207      	movs	r2, #7
 8001fe0:	4393      	bics	r3, r2
 8001fe2:	0019      	movs	r1, r3
 8001fe4:	4b6b      	ldr	r3, [pc, #428]	@ (8002194 <HAL_RCC_ClockConfig+0x1dc>)
 8001fe6:	683a      	ldr	r2, [r7, #0]
 8001fe8:	430a      	orrs	r2, r1
 8001fea:	601a      	str	r2, [r3, #0]
 8001fec:	f7ff fb12 	bl	8001614 <HAL_GetTick>
 8001ff0:	0003      	movs	r3, r0
 8001ff2:	60fb      	str	r3, [r7, #12]
 8001ff4:	e009      	b.n	800200a <HAL_RCC_ClockConfig+0x52>
 8001ff6:	f7ff fb0d 	bl	8001614 <HAL_GetTick>
 8001ffa:	0002      	movs	r2, r0
 8001ffc:	68fb      	ldr	r3, [r7, #12]
 8001ffe:	1ad3      	subs	r3, r2, r3
 8002000:	4a65      	ldr	r2, [pc, #404]	@ (8002198 <HAL_RCC_ClockConfig+0x1e0>)
 8002002:	4293      	cmp	r3, r2
 8002004:	d901      	bls.n	800200a <HAL_RCC_ClockConfig+0x52>
 8002006:	2303      	movs	r3, #3
 8002008:	e0c0      	b.n	800218c <HAL_RCC_ClockConfig+0x1d4>
 800200a:	4b62      	ldr	r3, [pc, #392]	@ (8002194 <HAL_RCC_ClockConfig+0x1dc>)
 800200c:	681b      	ldr	r3, [r3, #0]
 800200e:	2207      	movs	r2, #7
 8002010:	4013      	ands	r3, r2
 8002012:	683a      	ldr	r2, [r7, #0]
 8002014:	429a      	cmp	r2, r3
 8002016:	d1ee      	bne.n	8001ff6 <HAL_RCC_ClockConfig+0x3e>
 8002018:	687b      	ldr	r3, [r7, #4]
 800201a:	681b      	ldr	r3, [r3, #0]
 800201c:	2202      	movs	r2, #2
 800201e:	4013      	ands	r3, r2
 8002020:	d017      	beq.n	8002052 <HAL_RCC_ClockConfig+0x9a>
 8002022:	687b      	ldr	r3, [r7, #4]
 8002024:	681b      	ldr	r3, [r3, #0]
 8002026:	2204      	movs	r2, #4
 8002028:	4013      	ands	r3, r2
 800202a:	d008      	beq.n	800203e <HAL_RCC_ClockConfig+0x86>
 800202c:	4b5b      	ldr	r3, [pc, #364]	@ (800219c <HAL_RCC_ClockConfig+0x1e4>)
 800202e:	689b      	ldr	r3, [r3, #8]
 8002030:	4a5b      	ldr	r2, [pc, #364]	@ (80021a0 <HAL_RCC_ClockConfig+0x1e8>)
 8002032:	401a      	ands	r2, r3
 8002034:	4b59      	ldr	r3, [pc, #356]	@ (800219c <HAL_RCC_ClockConfig+0x1e4>)
 8002036:	21b0      	movs	r1, #176	@ 0xb0
 8002038:	0109      	lsls	r1, r1, #4
 800203a:	430a      	orrs	r2, r1
 800203c:	609a      	str	r2, [r3, #8]
 800203e:	4b57      	ldr	r3, [pc, #348]	@ (800219c <HAL_RCC_ClockConfig+0x1e4>)
 8002040:	689b      	ldr	r3, [r3, #8]
 8002042:	4a58      	ldr	r2, [pc, #352]	@ (80021a4 <HAL_RCC_ClockConfig+0x1ec>)
 8002044:	4013      	ands	r3, r2
 8002046:	0019      	movs	r1, r3
 8002048:	687b      	ldr	r3, [r7, #4]
 800204a:	68da      	ldr	r2, [r3, #12]
 800204c:	4b53      	ldr	r3, [pc, #332]	@ (800219c <HAL_RCC_ClockConfig+0x1e4>)
 800204e:	430a      	orrs	r2, r1
 8002050:	609a      	str	r2, [r3, #8]
 8002052:	687b      	ldr	r3, [r7, #4]
 8002054:	681b      	ldr	r3, [r3, #0]
 8002056:	2201      	movs	r2, #1
 8002058:	4013      	ands	r3, r2
 800205a:	d04b      	beq.n	80020f4 <HAL_RCC_ClockConfig+0x13c>
 800205c:	687b      	ldr	r3, [r7, #4]
 800205e:	685b      	ldr	r3, [r3, #4]
 8002060:	2b01      	cmp	r3, #1
 8002062:	d107      	bne.n	8002074 <HAL_RCC_ClockConfig+0xbc>
 8002064:	4b4d      	ldr	r3, [pc, #308]	@ (800219c <HAL_RCC_ClockConfig+0x1e4>)
 8002066:	681a      	ldr	r2, [r3, #0]
 8002068:	2380      	movs	r3, #128	@ 0x80
 800206a:	029b      	lsls	r3, r3, #10
 800206c:	4013      	ands	r3, r2
 800206e:	d11f      	bne.n	80020b0 <HAL_RCC_ClockConfig+0xf8>
 8002070:	2301      	movs	r3, #1
 8002072:	e08b      	b.n	800218c <HAL_RCC_ClockConfig+0x1d4>
 8002074:	687b      	ldr	r3, [r7, #4]
 8002076:	685b      	ldr	r3, [r3, #4]
 8002078:	2b00      	cmp	r3, #0
 800207a:	d107      	bne.n	800208c <HAL_RCC_ClockConfig+0xd4>
 800207c:	4b47      	ldr	r3, [pc, #284]	@ (800219c <HAL_RCC_ClockConfig+0x1e4>)
 800207e:	681a      	ldr	r2, [r3, #0]
 8002080:	2380      	movs	r3, #128	@ 0x80
 8002082:	00db      	lsls	r3, r3, #3
 8002084:	4013      	ands	r3, r2
 8002086:	d113      	bne.n	80020b0 <HAL_RCC_ClockConfig+0xf8>
 8002088:	2301      	movs	r3, #1
 800208a:	e07f      	b.n	800218c <HAL_RCC_ClockConfig+0x1d4>
 800208c:	687b      	ldr	r3, [r7, #4]
 800208e:	685b      	ldr	r3, [r3, #4]
 8002090:	2b03      	cmp	r3, #3
 8002092:	d106      	bne.n	80020a2 <HAL_RCC_ClockConfig+0xea>
 8002094:	4b41      	ldr	r3, [pc, #260]	@ (800219c <HAL_RCC_ClockConfig+0x1e4>)
 8002096:	6e1b      	ldr	r3, [r3, #96]	@ 0x60
 8002098:	2202      	movs	r2, #2
 800209a:	4013      	ands	r3, r2
 800209c:	d108      	bne.n	80020b0 <HAL_RCC_ClockConfig+0xf8>
 800209e:	2301      	movs	r3, #1
 80020a0:	e074      	b.n	800218c <HAL_RCC_ClockConfig+0x1d4>
 80020a2:	4b3e      	ldr	r3, [pc, #248]	@ (800219c <HAL_RCC_ClockConfig+0x1e4>)
 80020a4:	6ddb      	ldr	r3, [r3, #92]	@ 0x5c
 80020a6:	2202      	movs	r2, #2
 80020a8:	4013      	ands	r3, r2
 80020aa:	d101      	bne.n	80020b0 <HAL_RCC_ClockConfig+0xf8>
 80020ac:	2301      	movs	r3, #1
 80020ae:	e06d      	b.n	800218c <HAL_RCC_ClockConfig+0x1d4>
 80020b0:	4b3a      	ldr	r3, [pc, #232]	@ (800219c <HAL_RCC_ClockConfig+0x1e4>)
 80020b2:	689b      	ldr	r3, [r3, #8]
 80020b4:	2207      	movs	r2, #7
 80020b6:	4393      	bics	r3, r2
 80020b8:	0019      	movs	r1, r3
 80020ba:	687b      	ldr	r3, [r7, #4]
 80020bc:	685a      	ldr	r2, [r3, #4]
 80020be:	4b37      	ldr	r3, [pc, #220]	@ (800219c <HAL_RCC_ClockConfig+0x1e4>)
 80020c0:	430a      	orrs	r2, r1
 80020c2:	609a      	str	r2, [r3, #8]
 80020c4:	f7ff faa6 	bl	8001614 <HAL_GetTick>
 80020c8:	0003      	movs	r3, r0
 80020ca:	60fb      	str	r3, [r7, #12]
 80020cc:	e009      	b.n	80020e2 <HAL_RCC_ClockConfig+0x12a>
 80020ce:	f7ff faa1 	bl	8001614 <HAL_GetTick>
 80020d2:	0002      	movs	r2, r0
 80020d4:	68fb      	ldr	r3, [r7, #12]
 80020d6:	1ad3      	subs	r3, r2, r3
 80020d8:	4a2f      	ldr	r2, [pc, #188]	@ (8002198 <HAL_RCC_ClockConfig+0x1e0>)
 80020da:	4293      	cmp	r3, r2
 80020dc:	d901      	bls.n	80020e2 <HAL_RCC_ClockConfig+0x12a>
 80020de:	2303      	movs	r3, #3
 80020e0:	e054      	b.n	800218c <HAL_RCC_ClockConfig+0x1d4>
 80020e2:	4b2e      	ldr	r3, [pc, #184]	@ (800219c <HAL_RCC_ClockConfig+0x1e4>)
 80020e4:	689b      	ldr	r3, [r3, #8]
 80020e6:	2238      	movs	r2, #56	@ 0x38
 80020e8:	401a      	ands	r2, r3
 80020ea:	687b      	ldr	r3, [r7, #4]
 80020ec:	685b      	ldr	r3, [r3, #4]
 80020ee:	00db      	lsls	r3, r3, #3
 80020f0:	429a      	cmp	r2, r3
 80020f2:	d1ec      	bne.n	80020ce <HAL_RCC_ClockConfig+0x116>
 80020f4:	4b27      	ldr	r3, [pc, #156]	@ (8002194 <HAL_RCC_ClockConfig+0x1dc>)
 80020f6:	681b      	ldr	r3, [r3, #0]
 80020f8:	2207      	movs	r2, #7
 80020fa:	4013      	ands	r3, r2
 80020fc:	683a      	ldr	r2, [r7, #0]
 80020fe:	429a      	cmp	r2, r3
 8002100:	d21e      	bcs.n	8002140 <HAL_RCC_ClockConfig+0x188>
 8002102:	4b24      	ldr	r3, [pc, #144]	@ (8002194 <HAL_RCC_ClockConfig+0x1dc>)
 8002104:	681b      	ldr	r3, [r3, #0]
 8002106:	2207      	movs	r2, #7
 8002108:	4393      	bics	r3, r2
 800210a:	0019      	movs	r1, r3
 800210c:	4b21      	ldr	r3, [pc, #132]	@ (8002194 <HAL_RCC_ClockConfig+0x1dc>)
 800210e:	683a      	ldr	r2, [r7, #0]
 8002110:	430a      	orrs	r2, r1
 8002112:	601a      	str	r2, [r3, #0]
 8002114:	f7ff fa7e 	bl	8001614 <HAL_GetTick>
 8002118:	0003      	movs	r3, r0
 800211a:	60fb      	str	r3, [r7, #12]
 800211c:	e009      	b.n	8002132 <HAL_RCC_ClockConfig+0x17a>
 800211e:	f7ff fa79 	bl	8001614 <HAL_GetTick>
 8002122:	0002      	movs	r2, r0
 8002124:	68fb      	ldr	r3, [r7, #12]
 8002126:	1ad3      	subs	r3, r2, r3
 8002128:	4a1b      	ldr	r2, [pc, #108]	@ (8002198 <HAL_RCC_ClockConfig+0x1e0>)
 800212a:	4293      	cmp	r3, r2
 800212c:	d901      	bls.n	8002132 <HAL_RCC_ClockConfig+0x17a>
 800212e:	2303      	movs	r3, #3
 8002130:	e02c      	b.n	800218c <HAL_RCC_ClockConfig+0x1d4>
 8002132:	4b18      	ldr	r3, [pc, #96]	@ (8002194 <HAL_RCC_ClockConfig+0x1dc>)
 8002134:	681b      	ldr	r3, [r3, #0]
 8002136:	2207      	movs	r2, #7
 8002138:	4013      	ands	r3, r2
 800213a:	683a      	ldr	r2, [r7, #0]
 800213c:	429a      	cmp	r2, r3
 800213e:	d1ee      	bne.n	800211e <HAL_RCC_ClockConfig+0x166>
 8002140:	687b      	ldr	r3, [r7, #4]
 8002142:	681b      	ldr	r3, [r3, #0]
 8002144:	2204      	movs	r2, #4
 8002146:	4013      	ands	r3, r2
 8002148:	d009      	beq.n	800215e <HAL_RCC_ClockConfig+0x1a6>
 800214a:	4b14      	ldr	r3, [pc, #80]	@ (800219c <HAL_RCC_ClockConfig+0x1e4>)
 800214c:	689b      	ldr	r3, [r3, #8]
 800214e:	4a16      	ldr	r2, [pc, #88]	@ (80021a8 <HAL_RCC_ClockConfig+0x1f0>)
 8002150:	4013      	ands	r3, r2
 8002152:	0019      	movs	r1, r3
 8002154:	687b      	ldr	r3, [r7, #4]
 8002156:	691a      	ldr	r2, [r3, #16]
 8002158:	4b10      	ldr	r3, [pc, #64]	@ (800219c <HAL_RCC_ClockConfig+0x1e4>)
 800215a:	430a      	orrs	r2, r1
 800215c:	609a      	str	r2, [r3, #8]
 800215e:	f000 f82b 	bl	80021b8 <HAL_RCC_GetSysClockFreq>
 8002162:	0001      	movs	r1, r0
 8002164:	4b0d      	ldr	r3, [pc, #52]	@ (800219c <HAL_RCC_ClockConfig+0x1e4>)
 8002166:	689b      	ldr	r3, [r3, #8]
 8002168:	0a1b      	lsrs	r3, r3, #8
 800216a:	220f      	movs	r2, #15
 800216c:	401a      	ands	r2, r3
 800216e:	4b0f      	ldr	r3, [pc, #60]	@ (80021ac <HAL_RCC_ClockConfig+0x1f4>)
 8002170:	0092      	lsls	r2, r2, #2
 8002172:	58d3      	ldr	r3, [r2, r3]
 8002174:	221f      	movs	r2, #31
 8002176:	4013      	ands	r3, r2
 8002178:	000a      	movs	r2, r1
 800217a:	40da      	lsrs	r2, r3
 800217c:	4b0c      	ldr	r3, [pc, #48]	@ (80021b0 <HAL_RCC_ClockConfig+0x1f8>)
 800217e:	601a      	str	r2, [r3, #0]
 8002180:	4b0c      	ldr	r3, [pc, #48]	@ (80021b4 <HAL_RCC_ClockConfig+0x1fc>)
 8002182:	681b      	ldr	r3, [r3, #0]
 8002184:	0018      	movs	r0, r3
 8002186:	f7ff f9e9 	bl	800155c <HAL_InitTick>
 800218a:	0003      	movs	r3, r0
 800218c:	0018      	movs	r0, r3
 800218e:	46bd      	mov	sp, r7
 8002190:	b004      	add	sp, #16
 8002192:	bd80      	pop	{r7, pc}
 8002194:	40022000 	.word	0x40022000
 8002198:	00001388 	.word	0x00001388
 800219c:	40021000 	.word	0x40021000
 80021a0:	ffff84ff 	.word	0xffff84ff
 80021a4:	fffff0ff 	.word	0xfffff0ff
 80021a8:	ffff8fff 	.word	0xffff8fff
 80021ac:	08002788 	.word	0x08002788
 80021b0:	20000020 	.word	0x20000020
 80021b4:	20000024 	.word	0x20000024

080021b8 <HAL_RCC_GetSysClockFreq>:
 80021b8:	b580      	push	{r7, lr}
 80021ba:	b082      	sub	sp, #8
 80021bc:	af00      	add	r7, sp, #0
 80021be:	4b1c      	ldr	r3, [pc, #112]	@ (8002230 <HAL_RCC_GetSysClockFreq+0x78>)
 80021c0:	689b      	ldr	r3, [r3, #8]
 80021c2:	2238      	movs	r2, #56	@ 0x38
 80021c4:	4013      	ands	r3, r2
 80021c6:	d10f      	bne.n	80021e8 <HAL_RCC_GetSysClockFreq+0x30>
 80021c8:	4b19      	ldr	r3, [pc, #100]	@ (8002230 <HAL_RCC_GetSysClockFreq+0x78>)
 80021ca:	681b      	ldr	r3, [r3, #0]
 80021cc:	0adb      	lsrs	r3, r3, #11
 80021ce:	2207      	movs	r2, #7
 80021d0:	4013      	ands	r3, r2
 80021d2:	2201      	movs	r2, #1
 80021d4:	409a      	lsls	r2, r3
 80021d6:	0013      	movs	r3, r2
 80021d8:	603b      	str	r3, [r7, #0]
 80021da:	6839      	ldr	r1, [r7, #0]
 80021dc:	4815      	ldr	r0, [pc, #84]	@ (8002234 <HAL_RCC_GetSysClockFreq+0x7c>)
 80021de:	f7fd ff93 	bl	8000108 <__udivsi3>
 80021e2:	0003      	movs	r3, r0
 80021e4:	607b      	str	r3, [r7, #4]
 80021e6:	e01e      	b.n	8002226 <HAL_RCC_GetSysClockFreq+0x6e>
 80021e8:	4b11      	ldr	r3, [pc, #68]	@ (8002230 <HAL_RCC_GetSysClockFreq+0x78>)
 80021ea:	689b      	ldr	r3, [r3, #8]
 80021ec:	2238      	movs	r2, #56	@ 0x38
 80021ee:	4013      	ands	r3, r2
 80021f0:	2b08      	cmp	r3, #8
 80021f2:	d102      	bne.n	80021fa <HAL_RCC_GetSysClockFreq+0x42>
 80021f4:	4b0f      	ldr	r3, [pc, #60]	@ (8002234 <HAL_RCC_GetSysClockFreq+0x7c>)
 80021f6:	607b      	str	r3, [r7, #4]
 80021f8:	e015      	b.n	8002226 <HAL_RCC_GetSysClockFreq+0x6e>
 80021fa:	4b0d      	ldr	r3, [pc, #52]	@ (8002230 <HAL_RCC_GetSysClockFreq+0x78>)
 80021fc:	689b      	ldr	r3, [r3, #8]
 80021fe:	2238      	movs	r2, #56	@ 0x38
 8002200:	4013      	ands	r3, r2
 8002202:	2b20      	cmp	r3, #32
 8002204:	d103      	bne.n	800220e <HAL_RCC_GetSysClockFreq+0x56>
 8002206:	2380      	movs	r3, #128	@ 0x80
 8002208:	021b      	lsls	r3, r3, #8
 800220a:	607b      	str	r3, [r7, #4]
 800220c:	e00b      	b.n	8002226 <HAL_RCC_GetSysClockFreq+0x6e>
 800220e:	4b08      	ldr	r3, [pc, #32]	@ (8002230 <HAL_RCC_GetSysClockFreq+0x78>)
 8002210:	689b      	ldr	r3, [r3, #8]
 8002212:	2238      	movs	r2, #56	@ 0x38
 8002214:	4013      	ands	r3, r2
 8002216:	2b18      	cmp	r3, #24
 8002218:	d103      	bne.n	8002222 <HAL_RCC_GetSysClockFreq+0x6a>
 800221a:	23fa      	movs	r3, #250	@ 0xfa
 800221c:	01db      	lsls	r3, r3, #7
 800221e:	607b      	str	r3, [r7, #4]
 8002220:	e001      	b.n	8002226 <HAL_RCC_GetSysClockFreq+0x6e>
 8002222:	2300      	movs	r3, #0
 8002224:	607b      	str	r3, [r7, #4]
 8002226:	687b      	ldr	r3, [r7, #4]
 8002228:	0018      	movs	r0, r3
 800222a:	46bd      	mov	sp, r7
 800222c:	b002      	add	sp, #8
 800222e:	bd80      	pop	{r7, pc}
 8002230:	40021000 	.word	0x40021000
 8002234:	02dc6c00 	.word	0x02dc6c00

08002238 <HAL_TIM_Base_Init>:
 8002238:	b580      	push	{r7, lr}
 800223a:	b082      	sub	sp, #8
 800223c:	af00      	add	r7, sp, #0
 800223e:	6078      	str	r0, [r7, #4]
 8002240:	687b      	ldr	r3, [r7, #4]
 8002242:	2b00      	cmp	r3, #0
 8002244:	d101      	bne.n	800224a <HAL_TIM_Base_Init+0x12>
 8002246:	2301      	movs	r3, #1
 8002248:	e04a      	b.n	80022e0 <HAL_TIM_Base_Init+0xa8>
 800224a:	687b      	ldr	r3, [r7, #4]
 800224c:	223d      	movs	r2, #61	@ 0x3d
 800224e:	5c9b      	ldrb	r3, [r3, r2]
 8002250:	b2db      	uxtb	r3, r3
 8002252:	2b00      	cmp	r3, #0
 8002254:	d107      	bne.n	8002266 <HAL_TIM_Base_Init+0x2e>
 8002256:	687b      	ldr	r3, [r7, #4]
 8002258:	223c      	movs	r2, #60	@ 0x3c
 800225a:	2100      	movs	r1, #0
 800225c:	5499      	strb	r1, [r3, r2]
 800225e:	687b      	ldr	r3, [r7, #4]
 8002260:	0018      	movs	r0, r3
 8002262:	f7ff f913 	bl	800148c <HAL_TIM_Base_MspInit>
 8002266:	687b      	ldr	r3, [r7, #4]
 8002268:	223d      	movs	r2, #61	@ 0x3d
 800226a:	2102      	movs	r1, #2
 800226c:	5499      	strb	r1, [r3, r2]
 800226e:	687b      	ldr	r3, [r7, #4]
 8002270:	681a      	ldr	r2, [r3, #0]
 8002272:	687b      	ldr	r3, [r7, #4]
 8002274:	3304      	adds	r3, #4
 8002276:	0019      	movs	r1, r3
 8002278:	0010      	movs	r0, r2
 800227a:	f000 f9ab 	bl	80025d4 <TIM_Base_SetConfig>
 800227e:	687b      	ldr	r3, [r7, #4]
 8002280:	2248      	movs	r2, #72	@ 0x48
 8002282:	2101      	movs	r1, #1
 8002284:	5499      	strb	r1, [r3, r2]
 8002286:	687b      	ldr	r3, [r7, #4]
 8002288:	223e      	movs	r2, #62	@ 0x3e
 800228a:	2101      	movs	r1, #1
 800228c:	5499      	strb	r1, [r3, r2]
 800228e:	687b      	ldr	r3, [r7, #4]
 8002290:	223f      	movs	r2, #63	@ 0x3f
 8002292:	2101      	movs	r1, #1
 8002294:	5499      	strb	r1, [r3, r2]
 8002296:	687b      	ldr	r3, [r7, #4]
 8002298:	2240      	movs	r2, #64	@ 0x40
 800229a:	2101      	movs	r1, #1
 800229c:	5499      	strb	r1, [r3, r2]
 800229e:	687b      	ldr	r3, [r7, #4]
 80022a0:	2241      	movs	r2, #65	@ 0x41
 80022a2:	2101      	movs	r1, #1
 80022a4:	5499      	strb	r1, [r3, r2]
 80022a6:	687b      	ldr	r3, [r7, #4]
 80022a8:	2242      	movs	r2, #66	@ 0x42
 80022aa:	2101      	movs	r1, #1
 80022ac:	5499      	strb	r1, [r3, r2]
 80022ae:	687b      	ldr	r3, [r7, #4]
 80022b0:	2243      	movs	r2, #67	@ 0x43
 80022b2:	2101      	movs	r1, #1
 80022b4:	5499      	strb	r1, [r3, r2]
 80022b6:	687b      	ldr	r3, [r7, #4]
 80022b8:	2244      	movs	r2, #68	@ 0x44
 80022ba:	2101      	movs	r1, #1
 80022bc:	5499      	strb	r1, [r3, r2]
 80022be:	687b      	ldr	r3, [r7, #4]
 80022c0:	2245      	movs	r2, #69	@ 0x45
 80022c2:	2101      	movs	r1, #1
 80022c4:	5499      	strb	r1, [r3, r2]
 80022c6:	687b      	ldr	r3, [r7, #4]
 80022c8:	2246      	movs	r2, #70	@ 0x46
 80022ca:	2101      	movs	r1, #1
 80022cc:	5499      	strb	r1, [r3, r2]
 80022ce:	687b      	ldr	r3, [r7, #4]
 80022d0:	2247      	movs	r2, #71	@ 0x47
 80022d2:	2101      	movs	r1, #1
 80022d4:	5499      	strb	r1, [r3, r2]
 80022d6:	687b      	ldr	r3, [r7, #4]
 80022d8:	223d      	movs	r2, #61	@ 0x3d
 80022da:	2101      	movs	r1, #1
 80022dc:	5499      	strb	r1, [r3, r2]
 80022de:	2300      	movs	r3, #0
 80022e0:	0018      	movs	r0, r3
 80022e2:	46bd      	mov	sp, r7
 80022e4:	b002      	add	sp, #8
 80022e6:	bd80      	pop	{r7, pc}

080022e8 <HAL_TIM_Base_Start_IT>:
 80022e8:	b580      	push	{r7, lr}
 80022ea:	b084      	sub	sp, #16
 80022ec:	af00      	add	r7, sp, #0
 80022ee:	6078      	str	r0, [r7, #4]
 80022f0:	687b      	ldr	r3, [r7, #4]
 80022f2:	223d      	movs	r2, #61	@ 0x3d
 80022f4:	5c9b      	ldrb	r3, [r3, r2]
 80022f6:	b2db      	uxtb	r3, r3
 80022f8:	2b01      	cmp	r3, #1
 80022fa:	d001      	beq.n	8002300 <HAL_TIM_Base_Start_IT+0x18>
 80022fc:	2301      	movs	r3, #1
 80022fe:	e037      	b.n	8002370 <HAL_TIM_Base_Start_IT+0x88>
 8002300:	687b      	ldr	r3, [r7, #4]
 8002302:	223d      	movs	r2, #61	@ 0x3d
 8002304:	2102      	movs	r1, #2
 8002306:	5499      	strb	r1, [r3, r2]
 8002308:	687b      	ldr	r3, [r7, #4]
 800230a:	681b      	ldr	r3, [r3, #0]
 800230c:	68da      	ldr	r2, [r3, #12]
 800230e:	687b      	ldr	r3, [r7, #4]
 8002310:	681b      	ldr	r3, [r3, #0]
 8002312:	2101      	movs	r1, #1
 8002314:	430a      	orrs	r2, r1
 8002316:	60da      	str	r2, [r3, #12]
 8002318:	687b      	ldr	r3, [r7, #4]
 800231a:	681b      	ldr	r3, [r3, #0]
 800231c:	4a16      	ldr	r2, [pc, #88]	@ (8002378 <HAL_TIM_Base_Start_IT+0x90>)
 800231e:	4293      	cmp	r3, r2
 8002320:	d004      	beq.n	800232c <HAL_TIM_Base_Start_IT+0x44>
 8002322:	687b      	ldr	r3, [r7, #4]
 8002324:	681b      	ldr	r3, [r3, #0]
 8002326:	4a15      	ldr	r2, [pc, #84]	@ (800237c <HAL_TIM_Base_Start_IT+0x94>)
 8002328:	4293      	cmp	r3, r2
 800232a:	d116      	bne.n	800235a <HAL_TIM_Base_Start_IT+0x72>
 800232c:	687b      	ldr	r3, [r7, #4]
 800232e:	681b      	ldr	r3, [r3, #0]
 8002330:	689b      	ldr	r3, [r3, #8]
 8002332:	4a13      	ldr	r2, [pc, #76]	@ (8002380 <HAL_TIM_Base_Start_IT+0x98>)
 8002334:	4013      	ands	r3, r2
 8002336:	60fb      	str	r3, [r7, #12]
 8002338:	68fb      	ldr	r3, [r7, #12]
 800233a:	2b06      	cmp	r3, #6
 800233c:	d016      	beq.n	800236c <HAL_TIM_Base_Start_IT+0x84>
 800233e:	68fa      	ldr	r2, [r7, #12]
 8002340:	2380      	movs	r3, #128	@ 0x80
 8002342:	025b      	lsls	r3, r3, #9
 8002344:	429a      	cmp	r2, r3
 8002346:	d011      	beq.n	800236c <HAL_TIM_Base_Start_IT+0x84>
 8002348:	687b      	ldr	r3, [r7, #4]
 800234a:	681b      	ldr	r3, [r3, #0]
 800234c:	681a      	ldr	r2, [r3, #0]
 800234e:	687b      	ldr	r3, [r7, #4]
 8002350:	681b      	ldr	r3, [r3, #0]
 8002352:	2101      	movs	r1, #1
 8002354:	430a      	orrs	r2, r1
 8002356:	601a      	str	r2, [r3, #0]
 8002358:	e008      	b.n	800236c <HAL_TIM_Base_Start_IT+0x84>
 800235a:	687b      	ldr	r3, [r7, #4]
 800235c:	681b      	ldr	r3, [r3, #0]
 800235e:	681a      	ldr	r2, [r3, #0]
 8002360:	687b      	ldr	r3, [r7, #4]
 8002362:	681b      	ldr	r3, [r3, #0]
 8002364:	2101      	movs	r1, #1
 8002366:	430a      	orrs	r2, r1
 8002368:	601a      	str	r2, [r3, #0]
 800236a:	e000      	b.n	800236e <HAL_TIM_Base_Start_IT+0x86>
 800236c:	46c0      	nop			@ (mov r8, r8)
 800236e:	2300      	movs	r3, #0
 8002370:	0018      	movs	r0, r3
 8002372:	46bd      	mov	sp, r7
 8002374:	b004      	add	sp, #16
 8002376:	bd80      	pop	{r7, pc}
 8002378:	40012c00 	.word	0x40012c00
 800237c:	40000400 	.word	0x40000400
 8002380:	00010007 	.word	0x00010007

08002384 <HAL_TIM_IRQHandler>:
 8002384:	b580      	push	{r7, lr}
 8002386:	b084      	sub	sp, #16
 8002388:	af00      	add	r7, sp, #0
 800238a:	6078      	str	r0, [r7, #4]
 800238c:	687b      	ldr	r3, [r7, #4]
 800238e:	681b      	ldr	r3, [r3, #0]
 8002390:	68db      	ldr	r3, [r3, #12]
 8002392:	60fb      	str	r3, [r7, #12]
 8002394:	687b      	ldr	r3, [r7, #4]
 8002396:	681b      	ldr	r3, [r3, #0]
 8002398:	691b      	ldr	r3, [r3, #16]
 800239a:	60bb      	str	r3, [r7, #8]
 800239c:	68bb      	ldr	r3, [r7, #8]
 800239e:	2202      	movs	r2, #2
 80023a0:	4013      	ands	r3, r2
 80023a2:	d021      	beq.n	80023e8 <HAL_TIM_IRQHandler+0x64>
 80023a4:	68fb      	ldr	r3, [r7, #12]
 80023a6:	2202      	movs	r2, #2
 80023a8:	4013      	ands	r3, r2
 80023aa:	d01d      	beq.n	80023e8 <HAL_TIM_IRQHandler+0x64>
 80023ac:	687b      	ldr	r3, [r7, #4]
 80023ae:	681b      	ldr	r3, [r3, #0]
 80023b0:	2203      	movs	r2, #3
 80023b2:	4252      	negs	r2, r2
 80023b4:	611a      	str	r2, [r3, #16]
 80023b6:	687b      	ldr	r3, [r7, #4]
 80023b8:	2201      	movs	r2, #1
 80023ba:	771a      	strb	r2, [r3, #28]
 80023bc:	687b      	ldr	r3, [r7, #4]
 80023be:	681b      	ldr	r3, [r3, #0]
 80023c0:	699b      	ldr	r3, [r3, #24]
 80023c2:	2203      	movs	r2, #3
 80023c4:	4013      	ands	r3, r2
 80023c6:	d004      	beq.n	80023d2 <HAL_TIM_IRQHandler+0x4e>
 80023c8:	687b      	ldr	r3, [r7, #4]
 80023ca:	0018      	movs	r0, r3
 80023cc:	f000 f8ea 	bl	80025a4 <HAL_TIM_IC_CaptureCallback>
 80023d0:	e007      	b.n	80023e2 <HAL_TIM_IRQHandler+0x5e>
 80023d2:	687b      	ldr	r3, [r7, #4]
 80023d4:	0018      	movs	r0, r3
 80023d6:	f000 f8dd 	bl	8002594 <HAL_TIM_OC_DelayElapsedCallback>
 80023da:	687b      	ldr	r3, [r7, #4]
 80023dc:	0018      	movs	r0, r3
 80023de:	f000 f8e9 	bl	80025b4 <HAL_TIM_PWM_PulseFinishedCallback>
 80023e2:	687b      	ldr	r3, [r7, #4]
 80023e4:	2200      	movs	r2, #0
 80023e6:	771a      	strb	r2, [r3, #28]
 80023e8:	68bb      	ldr	r3, [r7, #8]
 80023ea:	2204      	movs	r2, #4
 80023ec:	4013      	ands	r3, r2
 80023ee:	d022      	beq.n	8002436 <HAL_TIM_IRQHandler+0xb2>
 80023f0:	68fb      	ldr	r3, [r7, #12]
 80023f2:	2204      	movs	r2, #4
 80023f4:	4013      	ands	r3, r2
 80023f6:	d01e      	beq.n	8002436 <HAL_TIM_IRQHandler+0xb2>
 80023f8:	687b      	ldr	r3, [r7, #4]
 80023fa:	681b      	ldr	r3, [r3, #0]
 80023fc:	2205      	movs	r2, #5
 80023fe:	4252      	negs	r2, r2
 8002400:	611a      	str	r2, [r3, #16]
 8002402:	687b      	ldr	r3, [r7, #4]
 8002404:	2202      	movs	r2, #2
 8002406:	771a      	strb	r2, [r3, #28]
 8002408:	687b      	ldr	r3, [r7, #4]
 800240a:	681b      	ldr	r3, [r3, #0]
 800240c:	699a      	ldr	r2, [r3, #24]
 800240e:	23c0      	movs	r3, #192	@ 0xc0
 8002410:	009b      	lsls	r3, r3, #2
 8002412:	4013      	ands	r3, r2
 8002414:	d004      	beq.n	8002420 <HAL_TIM_IRQHandler+0x9c>
 8002416:	687b      	ldr	r3, [r7, #4]
 8002418:	0018      	movs	r0, r3
 800241a:	f000 f8c3 	bl	80025a4 <HAL_TIM_IC_CaptureCallback>
 800241e:	e007      	b.n	8002430 <HAL_TIM_IRQHandler+0xac>
 8002420:	687b      	ldr	r3, [r7, #4]
 8002422:	0018      	movs	r0, r3
 8002424:	f000 f8b6 	bl	8002594 <HAL_TIM_OC_DelayElapsedCallback>
 8002428:	687b      	ldr	r3, [r7, #4]
 800242a:	0018      	movs	r0, r3
 800242c:	f000 f8c2 	bl	80025b4 <HAL_TIM_PWM_PulseFinishedCallback>
 8002430:	687b      	ldr	r3, [r7, #4]
 8002432:	2200      	movs	r2, #0
 8002434:	771a      	strb	r2, [r3, #28]
 8002436:	68bb      	ldr	r3, [r7, #8]
 8002438:	2208      	movs	r2, #8
 800243a:	4013      	ands	r3, r2
 800243c:	d021      	beq.n	8002482 <HAL_TIM_IRQHandler+0xfe>
 800243e:	68fb      	ldr	r3, [r7, #12]
 8002440:	2208      	movs	r2, #8
 8002442:	4013      	ands	r3, r2
 8002444:	d01d      	beq.n	8002482 <HAL_TIM_IRQHandler+0xfe>
 8002446:	687b      	ldr	r3, [r7, #4]
 8002448:	681b      	ldr	r3, [r3, #0]
 800244a:	2209      	movs	r2, #9
 800244c:	4252      	negs	r2, r2
 800244e:	611a      	str	r2, [r3, #16]
 8002450:	687b      	ldr	r3, [r7, #4]
 8002452:	2204      	movs	r2, #4
 8002454:	771a      	strb	r2, [r3, #28]
 8002456:	687b      	ldr	r3, [r7, #4]
 8002458:	681b      	ldr	r3, [r3, #0]
 800245a:	69db      	ldr	r3, [r3, #28]
 800245c:	2203      	movs	r2, #3
 800245e:	4013      	ands	r3, r2
 8002460:	d004      	beq.n	800246c <HAL_TIM_IRQHandler+0xe8>
 8002462:	687b      	ldr	r3, [r7, #4]
 8002464:	0018      	movs	r0, r3
 8002466:	f000 f89d 	bl	80025a4 <HAL_TIM_IC_CaptureCallback>
 800246a:	e007      	b.n	800247c <HAL_TIM_IRQHandler+0xf8>
 800246c:	687b      	ldr	r3, [r7, #4]
 800246e:	0018      	movs	r0, r3
 8002470:	f000 f890 	bl	8002594 <HAL_TIM_OC_DelayElapsedCallback>
 8002474:	687b      	ldr	r3, [r7, #4]
 8002476:	0018      	movs	r0, r3
 8002478:	f000 f89c 	bl	80025b4 <HAL_TIM_PWM_PulseFinishedCallback>
 800247c:	687b      	ldr	r3, [r7, #4]
 800247e:	2200      	movs	r2, #0
 8002480:	771a      	strb	r2, [r3, #28]
 8002482:	68bb      	ldr	r3, [r7, #8]
 8002484:	2210      	movs	r2, #16
 8002486:	4013      	ands	r3, r2
 8002488:	d022      	beq.n	80024d0 <HAL_TIM_IRQHandler+0x14c>
 800248a:	68fb      	ldr	r3, [r7, #12]
 800248c:	2210      	movs	r2, #16
 800248e:	4013      	ands	r3, r2
 8002490:	d01e      	beq.n	80024d0 <HAL_TIM_IRQHandler+0x14c>
 8002492:	687b      	ldr	r3, [r7, #4]
 8002494:	681b      	ldr	r3, [r3, #0]
 8002496:	2211      	movs	r2, #17
 8002498:	4252      	negs	r2, r2
 800249a:	611a      	str	r2, [r3, #16]
 800249c:	687b      	ldr	r3, [r7, #4]
 800249e:	2208      	movs	r2, #8
 80024a0:	771a      	strb	r2, [r3, #28]
 80024a2:	687b      	ldr	r3, [r7, #4]
 80024a4:	681b      	ldr	r3, [r3, #0]
 80024a6:	69da      	ldr	r2, [r3, #28]
 80024a8:	23c0      	movs	r3, #192	@ 0xc0
 80024aa:	009b      	lsls	r3, r3, #2
 80024ac:	4013      	ands	r3, r2
 80024ae:	d004      	beq.n	80024ba <HAL_TIM_IRQHandler+0x136>
 80024b0:	687b      	ldr	r3, [r7, #4]
 80024b2:	0018      	movs	r0, r3
 80024b4:	f000 f876 	bl	80025a4 <HAL_TIM_IC_CaptureCallback>
 80024b8:	e007      	b.n	80024ca <HAL_TIM_IRQHandler+0x146>
 80024ba:	687b      	ldr	r3, [r7, #4]
 80024bc:	0018      	movs	r0, r3
 80024be:	f000 f869 	bl	8002594 <HAL_TIM_OC_DelayElapsedCallback>
 80024c2:	687b      	ldr	r3, [r7, #4]
 80024c4:	0018      	movs	r0, r3
 80024c6:	f000 f875 	bl	80025b4 <HAL_TIM_PWM_PulseFinishedCallback>
 80024ca:	687b      	ldr	r3, [r7, #4]
 80024cc:	2200      	movs	r2, #0
 80024ce:	771a      	strb	r2, [r3, #28]
 80024d0:	68bb      	ldr	r3, [r7, #8]
 80024d2:	2201      	movs	r2, #1
 80024d4:	4013      	ands	r3, r2
 80024d6:	d00c      	beq.n	80024f2 <HAL_TIM_IRQHandler+0x16e>
 80024d8:	68fb      	ldr	r3, [r7, #12]
 80024da:	2201      	movs	r2, #1
 80024dc:	4013      	ands	r3, r2
 80024de:	d008      	beq.n	80024f2 <HAL_TIM_IRQHandler+0x16e>
 80024e0:	687b      	ldr	r3, [r7, #4]
 80024e2:	681b      	ldr	r3, [r3, #0]
 80024e4:	2202      	movs	r2, #2
 80024e6:	4252      	negs	r2, r2
 80024e8:	611a      	str	r2, [r3, #16]
 80024ea:	687b      	ldr	r3, [r7, #4]
 80024ec:	0018      	movs	r0, r3
 80024ee:	f7fd ffc9 	bl	8000484 <HAL_TIM_PeriodElapsedCallback>
 80024f2:	68bb      	ldr	r3, [r7, #8]
 80024f4:	2280      	movs	r2, #128	@ 0x80
 80024f6:	4013      	ands	r3, r2
 80024f8:	d104      	bne.n	8002504 <HAL_TIM_IRQHandler+0x180>
 80024fa:	68ba      	ldr	r2, [r7, #8]
 80024fc:	2380      	movs	r3, #128	@ 0x80
 80024fe:	019b      	lsls	r3, r3, #6
 8002500:	4013      	ands	r3, r2
 8002502:	d00b      	beq.n	800251c <HAL_TIM_IRQHandler+0x198>
 8002504:	68fb      	ldr	r3, [r7, #12]
 8002506:	2280      	movs	r2, #128	@ 0x80
 8002508:	4013      	ands	r3, r2
 800250a:	d007      	beq.n	800251c <HAL_TIM_IRQHandler+0x198>
 800250c:	687b      	ldr	r3, [r7, #4]
 800250e:	681b      	ldr	r3, [r3, #0]
 8002510:	4a1e      	ldr	r2, [pc, #120]	@ (800258c <HAL_TIM_IRQHandler+0x208>)
 8002512:	611a      	str	r2, [r3, #16]
 8002514:	687b      	ldr	r3, [r7, #4]
 8002516:	0018      	movs	r0, r3
 8002518:	f000 f8d6 	bl	80026c8 <HAL_TIMEx_BreakCallback>
 800251c:	68ba      	ldr	r2, [r7, #8]
 800251e:	2380      	movs	r3, #128	@ 0x80
 8002520:	005b      	lsls	r3, r3, #1
 8002522:	4013      	ands	r3, r2
 8002524:	d00b      	beq.n	800253e <HAL_TIM_IRQHandler+0x1ba>
 8002526:	68fb      	ldr	r3, [r7, #12]
 8002528:	2280      	movs	r2, #128	@ 0x80
 800252a:	4013      	ands	r3, r2
 800252c:	d007      	beq.n	800253e <HAL_TIM_IRQHandler+0x1ba>
 800252e:	687b      	ldr	r3, [r7, #4]
 8002530:	681b      	ldr	r3, [r3, #0]
 8002532:	4a17      	ldr	r2, [pc, #92]	@ (8002590 <HAL_TIM_IRQHandler+0x20c>)
 8002534:	611a      	str	r2, [r3, #16]
 8002536:	687b      	ldr	r3, [r7, #4]
 8002538:	0018      	movs	r0, r3
 800253a:	f000 f8cd 	bl	80026d8 <HAL_TIMEx_Break2Callback>
 800253e:	68bb      	ldr	r3, [r7, #8]
 8002540:	2240      	movs	r2, #64	@ 0x40
 8002542:	4013      	ands	r3, r2
 8002544:	d00c      	beq.n	8002560 <HAL_TIM_IRQHandler+0x1dc>
 8002546:	68fb      	ldr	r3, [r7, #12]
 8002548:	2240      	movs	r2, #64	@ 0x40
 800254a:	4013      	ands	r3, r2
 800254c:	d008      	beq.n	8002560 <HAL_TIM_IRQHandler+0x1dc>
 800254e:	687b      	ldr	r3, [r7, #4]
 8002550:	681b      	ldr	r3, [r3, #0]
 8002552:	2241      	movs	r2, #65	@ 0x41
 8002554:	4252      	negs	r2, r2
 8002556:	611a      	str	r2, [r3, #16]
 8002558:	687b      	ldr	r3, [r7, #4]
 800255a:	0018      	movs	r0, r3
 800255c:	f000 f832 	bl	80025c4 <HAL_TIM_TriggerCallback>
 8002560:	68bb      	ldr	r3, [r7, #8]
 8002562:	2220      	movs	r2, #32
 8002564:	4013      	ands	r3, r2
 8002566:	d00c      	beq.n	8002582 <HAL_TIM_IRQHandler+0x1fe>
 8002568:	68fb      	ldr	r3, [r7, #12]
 800256a:	2220      	movs	r2, #32
 800256c:	4013      	ands	r3, r2
 800256e:	d008      	beq.n	8002582 <HAL_TIM_IRQHandler+0x1fe>
 8002570:	687b      	ldr	r3, [r7, #4]
 8002572:	681b      	ldr	r3, [r3, #0]
 8002574:	2221      	movs	r2, #33	@ 0x21
 8002576:	4252      	negs	r2, r2
 8002578:	611a      	str	r2, [r3, #16]
 800257a:	687b      	ldr	r3, [r7, #4]
 800257c:	0018      	movs	r0, r3
 800257e:	f000 f89b 	bl	80026b8 <HAL_TIMEx_CommutCallback>
 8002582:	46c0      	nop			@ (mov r8, r8)
 8002584:	46bd      	mov	sp, r7
 8002586:	b004      	add	sp, #16
 8002588:	bd80      	pop	{r7, pc}
 800258a:	46c0      	nop			@ (mov r8, r8)
 800258c:	ffffdf7f 	.word	0xffffdf7f
 8002590:	fffffeff 	.word	0xfffffeff

08002594 <HAL_TIM_OC_DelayElapsedCallback>:
 8002594:	b580      	push	{r7, lr}
 8002596:	b082      	sub	sp, #8
 8002598:	af00      	add	r7, sp, #0
 800259a:	6078      	str	r0, [r7, #4]
 800259c:	46c0      	nop			@ (mov r8, r8)
 800259e:	46bd      	mov	sp, r7
 80025a0:	b002      	add	sp, #8
 80025a2:	bd80      	pop	{r7, pc}

080025a4 <HAL_TIM_IC_CaptureCallback>:
 80025a4:	b580      	push	{r7, lr}
 80025a6:	b082      	sub	sp, #8
 80025a8:	af00      	add	r7, sp, #0
 80025aa:	6078      	str	r0, [r7, #4]
 80025ac:	46c0      	nop			@ (mov r8, r8)
 80025ae:	46bd      	mov	sp, r7
 80025b0:	b002      	add	sp, #8
 80025b2:	bd80      	pop	{r7, pc}

080025b4 <HAL_TIM_PWM_PulseFinishedCallback>:
 80025b4:	b580      	push	{r7, lr}
 80025b6:	b082      	sub	sp, #8
 80025b8:	af00      	add	r7, sp, #0
 80025ba:	6078      	str	r0, [r7, #4]
 80025bc:	46c0      	nop			@ (mov r8, r8)
 80025be:	46bd      	mov	sp, r7
 80025c0:	b002      	add	sp, #8
 80025c2:	bd80      	pop	{r7, pc}

080025c4 <HAL_TIM_TriggerCallback>:
 80025c4:	b580      	push	{r7, lr}
 80025c6:	b082      	sub	sp, #8
 80025c8:	af00      	add	r7, sp, #0
 80025ca:	6078      	str	r0, [r7, #4]
 80025cc:	46c0      	nop			@ (mov r8, r8)
 80025ce:	46bd      	mov	sp, r7
 80025d0:	b002      	add	sp, #8
 80025d2:	bd80      	pop	{r7, pc}

080025d4 <TIM_Base_SetConfig>:
 80025d4:	b580      	push	{r7, lr}
 80025d6:	b084      	sub	sp, #16
 80025d8:	af00      	add	r7, sp, #0
 80025da:	6078      	str	r0, [r7, #4]
 80025dc:	6039      	str	r1, [r7, #0]
 80025de:	687b      	ldr	r3, [r7, #4]
 80025e0:	681b      	ldr	r3, [r3, #0]
 80025e2:	60fb      	str	r3, [r7, #12]
 80025e4:	687b      	ldr	r3, [r7, #4]
 80025e6:	4a2e      	ldr	r2, [pc, #184]	@ (80026a0 <TIM_Base_SetConfig+0xcc>)
 80025e8:	4293      	cmp	r3, r2
 80025ea:	d003      	beq.n	80025f4 <TIM_Base_SetConfig+0x20>
 80025ec:	687b      	ldr	r3, [r7, #4]
 80025ee:	4a2d      	ldr	r2, [pc, #180]	@ (80026a4 <TIM_Base_SetConfig+0xd0>)
 80025f0:	4293      	cmp	r3, r2
 80025f2:	d108      	bne.n	8002606 <TIM_Base_SetConfig+0x32>
 80025f4:	68fb      	ldr	r3, [r7, #12]
 80025f6:	2270      	movs	r2, #112	@ 0x70
 80025f8:	4393      	bics	r3, r2
 80025fa:	60fb      	str	r3, [r7, #12]
 80025fc:	683b      	ldr	r3, [r7, #0]
 80025fe:	685b      	ldr	r3, [r3, #4]
 8002600:	68fa      	ldr	r2, [r7, #12]
 8002602:	4313      	orrs	r3, r2
 8002604:	60fb      	str	r3, [r7, #12]
 8002606:	687b      	ldr	r3, [r7, #4]
 8002608:	4a25      	ldr	r2, [pc, #148]	@ (80026a0 <TIM_Base_SetConfig+0xcc>)
 800260a:	4293      	cmp	r3, r2
 800260c:	d00f      	beq.n	800262e <TIM_Base_SetConfig+0x5a>
 800260e:	687b      	ldr	r3, [r7, #4]
 8002610:	4a24      	ldr	r2, [pc, #144]	@ (80026a4 <TIM_Base_SetConfig+0xd0>)
 8002612:	4293      	cmp	r3, r2
 8002614:	d00b      	beq.n	800262e <TIM_Base_SetConfig+0x5a>
 8002616:	687b      	ldr	r3, [r7, #4]
 8002618:	4a23      	ldr	r2, [pc, #140]	@ (80026a8 <TIM_Base_SetConfig+0xd4>)
 800261a:	4293      	cmp	r3, r2
 800261c:	d007      	beq.n	800262e <TIM_Base_SetConfig+0x5a>
 800261e:	687b      	ldr	r3, [r7, #4]
 8002620:	4a22      	ldr	r2, [pc, #136]	@ (80026ac <TIM_Base_SetConfig+0xd8>)
 8002622:	4293      	cmp	r3, r2
 8002624:	d003      	beq.n	800262e <TIM_Base_SetConfig+0x5a>
 8002626:	687b      	ldr	r3, [r7, #4]
 8002628:	4a21      	ldr	r2, [pc, #132]	@ (80026b0 <TIM_Base_SetConfig+0xdc>)
 800262a:	4293      	cmp	r3, r2
 800262c:	d108      	bne.n	8002640 <TIM_Base_SetConfig+0x6c>
 800262e:	68fb      	ldr	r3, [r7, #12]
 8002630:	4a20      	ldr	r2, [pc, #128]	@ (80026b4 <TIM_Base_SetConfig+0xe0>)
 8002632:	4013      	ands	r3, r2
 8002634:	60fb      	str	r3, [r7, #12]
 8002636:	683b      	ldr	r3, [r7, #0]
 8002638:	68db      	ldr	r3, [r3, #12]
 800263a:	68fa      	ldr	r2, [r7, #12]
 800263c:	4313      	orrs	r3, r2
 800263e:	60fb      	str	r3, [r7, #12]
 8002640:	68fb      	ldr	r3, [r7, #12]
 8002642:	2280      	movs	r2, #128	@ 0x80
 8002644:	4393      	bics	r3, r2
 8002646:	001a      	movs	r2, r3
 8002648:	683b      	ldr	r3, [r7, #0]
 800264a:	695b      	ldr	r3, [r3, #20]
 800264c:	4313      	orrs	r3, r2
 800264e:	60fb      	str	r3, [r7, #12]
 8002650:	683b      	ldr	r3, [r7, #0]
 8002652:	689a      	ldr	r2, [r3, #8]
 8002654:	687b      	ldr	r3, [r7, #4]
 8002656:	62da      	str	r2, [r3, #44]	@ 0x2c
 8002658:	683b      	ldr	r3, [r7, #0]
 800265a:	681a      	ldr	r2, [r3, #0]
 800265c:	687b      	ldr	r3, [r7, #4]
 800265e:	629a      	str	r2, [r3, #40]	@ 0x28
 8002660:	687b      	ldr	r3, [r7, #4]
 8002662:	4a0f      	ldr	r2, [pc, #60]	@ (80026a0 <TIM_Base_SetConfig+0xcc>)
 8002664:	4293      	cmp	r3, r2
 8002666:	d007      	beq.n	8002678 <TIM_Base_SetConfig+0xa4>
 8002668:	687b      	ldr	r3, [r7, #4]
 800266a:	4a10      	ldr	r2, [pc, #64]	@ (80026ac <TIM_Base_SetConfig+0xd8>)
 800266c:	4293      	cmp	r3, r2
 800266e:	d003      	beq.n	8002678 <TIM_Base_SetConfig+0xa4>
 8002670:	687b      	ldr	r3, [r7, #4]
 8002672:	4a0f      	ldr	r2, [pc, #60]	@ (80026b0 <TIM_Base_SetConfig+0xdc>)
 8002674:	4293      	cmp	r3, r2
 8002676:	d103      	bne.n	8002680 <TIM_Base_SetConfig+0xac>
 8002678:	683b      	ldr	r3, [r7, #0]
 800267a:	691a      	ldr	r2, [r3, #16]
 800267c:	687b      	ldr	r3, [r7, #4]
 800267e:	631a      	str	r2, [r3, #48]	@ 0x30
 8002680:	687b      	ldr	r3, [r7, #4]
 8002682:	681b      	ldr	r3, [r3, #0]
 8002684:	2204      	movs	r2, #4
 8002686:	431a      	orrs	r2, r3
 8002688:	687b      	ldr	r3, [r7, #4]
 800268a:	601a      	str	r2, [r3, #0]
 800268c:	687b      	ldr	r3, [r7, #4]
 800268e:	2201      	movs	r2, #1
 8002690:	615a      	str	r2, [r3, #20]
 8002692:	687b      	ldr	r3, [r7, #4]
 8002694:	68fa      	ldr	r2, [r7, #12]
 8002696:	601a      	str	r2, [r3, #0]
 8002698:	46c0      	nop			@ (mov r8, r8)
 800269a:	46bd      	mov	sp, r7
 800269c:	b004      	add	sp, #16
 800269e:	bd80      	pop	{r7, pc}
 80026a0:	40012c00 	.word	0x40012c00
 80026a4:	40000400 	.word	0x40000400
 80026a8:	40002000 	.word	0x40002000
 80026ac:	40014400 	.word	0x40014400
 80026b0:	40014800 	.word	0x40014800
 80026b4:	fffffcff 	.word	0xfffffcff

080026b8 <HAL_TIMEx_CommutCallback>:
 80026b8:	b580      	push	{r7, lr}
 80026ba:	b082      	sub	sp, #8
 80026bc:	af00      	add	r7, sp, #0
 80026be:	6078      	str	r0, [r7, #4]
 80026c0:	46c0      	nop			@ (mov r8, r8)
 80026c2:	46bd      	mov	sp, r7
 80026c4:	b002      	add	sp, #8
 80026c6:	bd80      	pop	{r7, pc}

080026c8 <HAL_TIMEx_BreakCallback>:
 80026c8:	b580      	push	{r7, lr}
 80026ca:	b082      	sub	sp, #8
 80026cc:	af00      	add	r7, sp, #0
 80026ce:	6078      	str	r0, [r7, #4]
 80026d0:	46c0      	nop			@ (mov r8, r8)
 80026d2:	46bd      	mov	sp, r7
 80026d4:	b002      	add	sp, #8
 80026d6:	bd80      	pop	{r7, pc}

080026d8 <HAL_TIMEx_Break2Callback>:
 80026d8:	b580      	push	{r7, lr}
 80026da:	b082      	sub	sp, #8
 80026dc:	af00      	add	r7, sp, #0
 80026de:	6078      	str	r0, [r7, #4]
 80026e0:	46c0      	nop			@ (mov r8, r8)
 80026e2:	46bd      	mov	sp, r7
 80026e4:	b002      	add	sp, #8
 80026e6:	bd80      	pop	{r7, pc}

080026e8 <memset>:
 80026e8:	0003      	movs	r3, r0
 80026ea:	1882      	adds	r2, r0, r2
 80026ec:	4293      	cmp	r3, r2
 80026ee:	d100      	bne.n	80026f2 <memset+0xa>
 80026f0:	4770      	bx	lr
 80026f2:	7019      	strb	r1, [r3, #0]
 80026f4:	3301      	adds	r3, #1
 80026f6:	e7f9      	b.n	80026ec <memset+0x4>

080026f8 <__libc_init_array>:
 80026f8:	b570      	push	{r4, r5, r6, lr}
 80026fa:	2600      	movs	r6, #0
 80026fc:	4c0c      	ldr	r4, [pc, #48]	@ (8002730 <__libc_init_array+0x38>)
 80026fe:	4d0d      	ldr	r5, [pc, #52]	@ (8002734 <__libc_init_array+0x3c>)
 8002700:	1b64      	subs	r4, r4, r5
 8002702:	10a4      	asrs	r4, r4, #2
 8002704:	42a6      	cmp	r6, r4
 8002706:	d109      	bne.n	800271c <__libc_init_array+0x24>
 8002708:	2600      	movs	r6, #0
 800270a:	f000 f819 	bl	8002740 <_init>
 800270e:	4c0a      	ldr	r4, [pc, #40]	@ (8002738 <__libc_init_array+0x40>)
 8002710:	4d0a      	ldr	r5, [pc, #40]	@ (800273c <__libc_init_array+0x44>)
 8002712:	1b64      	subs	r4, r4, r5
 8002714:	10a4      	asrs	r4, r4, #2
 8002716:	42a6      	cmp	r6, r4
 8002718:	d105      	bne.n	8002726 <__libc_init_array+0x2e>
 800271a:	bd70      	pop	{r4, r5, r6, pc}
 800271c:	00b3      	lsls	r3, r6, #2
 800271e:	58eb      	ldr	r3, [r5, r3]
 8002720:	4798      	blx	r3
 8002722:	3601      	adds	r6, #1
 8002724:	e7ee      	b.n	8002704 <__libc_init_array+0xc>
 8002726:	00b3      	lsls	r3, r6, #2
 8002728:	58eb      	ldr	r3, [r5, r3]
 800272a:	4798      	blx	r3
 800272c:	3601      	adds	r6, #1
 800272e:	e7f2      	b.n	8002716 <__libc_init_array+0x1e>
 8002730:	080027c8 	.word	0x080027c8
 8002734:	080027c8 	.word	0x080027c8
 8002738:	080027cc 	.word	0x080027cc
 800273c:	080027c8 	.word	0x080027c8

08002740 <_init>:
 8002740:	b5f8      	push	{r3, r4, r5, r6, r7, lr}
 8002742:	46c0      	nop			@ (mov r8, r8)
 8002744:	bcf8      	pop	{r3, r4, r5, r6, r7}
 8002746:	bc08      	pop	{r3}
 8002748:	469e      	mov	lr, r3
 800274a:	4770      	bx	lr

0800274c <_fini>:
 800274c:	b5f8      	push	{r3, r4, r5, r6, r7, lr}
 800274e:	46c0      	nop			@ (mov r8, r8)
 8002750:	bcf8      	pop	{r3, r4, r5, r6, r7}
 8002752:	bc08      	pop	{r3}
 8002754:	469e      	mov	lr, r3
 8002756:	4770      	bx	lr
